
./relibtest:     file format elf64-x86-64


Disassembly of section .init:

0000000000001000 <_init>:
    1000:	f3 0f 1e fa          	endbr64
    1004:	48 83 ec 08          	sub    $0x8,%rsp
    1008:	48 8b 05 c1 9f 00 00 	mov    0x9fc1(%rip),%rax        # afd0 <__gmon_start__@Base>
    100f:	48 85 c0             	test   %rax,%rax
    1012:	74 02                	je     1016 <_init+0x16>
    1014:	ff d0                	call   *%rax
    1016:	48 83 c4 08          	add    $0x8,%rsp
    101a:	c3                   	ret

Disassembly of section .plt:

0000000000001020 <write@plt-0x10>:
    1020:	ff 35 ca 9f 00 00    	push   0x9fca(%rip)        # aff0 <_GLOBAL_OFFSET_TABLE_+0x8>
    1026:	ff 25 cc 9f 00 00    	jmp    *0x9fcc(%rip)        # aff8 <_GLOBAL_OFFSET_TABLE_+0x10>
    102c:	0f 1f 40 00          	nopl   0x0(%rax)

0000000000001030 <write@plt>:
    1030:	ff 25 ca 9f 00 00    	jmp    *0x9fca(%rip)        # b000 <write@GLIBC_2.2.5>
    1036:	68 00 00 00 00       	push   $0x0
    103b:	e9 e0 ff ff ff       	jmp    1020 <_init+0x20>

0000000000001040 <__stack_chk_fail@plt>:
    1040:	ff 25 c2 9f 00 00    	jmp    *0x9fc2(%rip)        # b008 <__stack_chk_fail@GLIBC_2.4>
    1046:	68 01 00 00 00       	push   $0x1
    104b:	e9 d0 ff ff ff       	jmp    1020 <_init+0x20>

0000000000001050 <printf@plt>:
    1050:	ff 25 ba 9f 00 00    	jmp    *0x9fba(%rip)        # b010 <printf@GLIBC_2.2.5>
    1056:	68 02 00 00 00       	push   $0x2
    105b:	e9 c0 ff ff ff       	jmp    1020 <_init+0x20>

Disassembly of section .text:

0000000000001080 <main>:
    1080:	53                   	push   %rbx
    1081:	48 83 ec 20          	sub    $0x20,%rsp
    1085:	f2 0f 10 05 23 72 00 	movsd  0x7223(%rip),%xmm0        # 82b0 <_IO_stdin_used+0x2b0>
    108c:	00 
    108d:	64 48 8b 04 25 28 00 	mov    %fs:0x28,%rax
    1094:	00 00 
    1096:	48 89 44 24 18       	mov    %rax,0x18(%rsp)
    109b:	31 c0                	xor    %eax,%eax
    109d:	e8 fe 38 00 00       	call   49a0 <sqrt>
    10a2:	48 8d 35 e8 6f 00 00 	lea    0x6fe8(%rip),%rsi        # 8091 <_IO_stdin_used+0x91>
    10a9:	b8 01 00 00 00       	mov    $0x1,%eax
    10ae:	48 8d 3d a7 6f 00 00 	lea    0x6fa7(%rip),%rdi        # 805c <_IO_stdin_used+0x5c>
    10b5:	e8 96 ff ff ff       	call   1050 <printf@plt>
    10ba:	f2 0f 10 05 f6 71 00 	movsd  0x71f6(%rip),%xmm0        # 82b8 <_IO_stdin_used+0x2b8>
    10c1:	00 
    10c2:	e8 d9 38 00 00       	call   49a0 <sqrt>
    10c7:	48 8d 35 fb 6f 00 00 	lea    0x6ffb(%rip),%rsi        # 80c9 <_IO_stdin_used+0xc9>
    10ce:	b8 01 00 00 00       	mov    $0x1,%eax
    10d3:	48 8d 3d 82 6f 00 00 	lea    0x6f82(%rip),%rdi        # 805c <_IO_stdin_used+0x5c>
    10da:	e8 71 ff ff ff       	call   1050 <printf@plt>
    10df:	f2 0f 10 05 d9 71 00 	movsd  0x71d9(%rip),%xmm0        # 82c0 <_IO_stdin_used+0x2c0>
    10e6:	00 
    10e7:	e8 b4 38 00 00       	call   49a0 <sqrt>
    10ec:	48 8d 35 3b 70 00 00 	lea    0x703b(%rip),%rsi        # 812e <_IO_stdin_used+0x12e>
    10f3:	b8 01 00 00 00       	mov    $0x1,%eax
    10f8:	48 8d 3d 5d 6f 00 00 	lea    0x6f5d(%rip),%rdi        # 805c <_IO_stdin_used+0x5c>
    10ff:	e8 4c ff ff ff       	call   1050 <printf@plt>
    1104:	f2 0f 10 05 bc 71 00 	movsd  0x71bc(%rip),%xmm0        # 82c8 <_IO_stdin_used+0x2c8>
    110b:	00 
    110c:	e8 8f 38 00 00       	call   49a0 <sqrt>
    1111:	48 8d 35 57 6f 00 00 	lea    0x6f57(%rip),%rsi        # 806f <_IO_stdin_used+0x6f>
    1118:	b8 01 00 00 00       	mov    $0x1,%eax
    111d:	48 8d 3d 38 6f 00 00 	lea    0x6f38(%rip),%rdi        # 805c <_IO_stdin_used+0x5c>
    1124:	e8 27 ff ff ff       	call   1050 <printf@plt>
    1129:	f2 0f 10 05 9f 71 00 	movsd  0x719f(%rip),%xmm0        # 82d0 <_IO_stdin_used+0x2d0>
    1130:	00 
    1131:	e8 6a 38 00 00       	call   49a0 <sqrt>
    1136:	48 8d 35 2e 6f 00 00 	lea    0x6f2e(%rip),%rsi        # 806b <_IO_stdin_used+0x6b>
    113d:	b8 01 00 00 00       	mov    $0x1,%eax
    1142:	48 8d 3d 13 6f 00 00 	lea    0x6f13(%rip),%rdi        # 805c <_IO_stdin_used+0x5c>
    1149:	e8 02 ff ff ff       	call   1050 <printf@plt>
    114e:	f2 0f 10 05 82 71 00 	movsd  0x7182(%rip),%xmm0        # 82d8 <_IO_stdin_used+0x2d8>
    1155:	00 
    1156:	e8 45 38 00 00       	call   49a0 <sqrt>
    115b:	48 8d 35 0f 6f 00 00 	lea    0x6f0f(%rip),%rsi        # 8071 <_IO_stdin_used+0x71>
    1162:	b8 01 00 00 00       	mov    $0x1,%eax
    1167:	48 8d 3d ee 6e 00 00 	lea    0x6eee(%rip),%rdi        # 805c <_IO_stdin_used+0x5c>
    116e:	e8 dd fe ff ff       	call   1050 <printf@plt>
    1173:	f2 0f 10 05 65 71 00 	movsd  0x7165(%rip),%xmm0        # 82e0 <_IO_stdin_used+0x2e0>
    117a:	00 
    117b:	e8 20 38 00 00       	call   49a0 <sqrt>
    1180:	48 8d 35 02 6f 00 00 	lea    0x6f02(%rip),%rsi        # 8089 <_IO_stdin_used+0x89>
    1187:	b8 01 00 00 00       	mov    $0x1,%eax
    118c:	48 8d 3d c9 6e 00 00 	lea    0x6ec9(%rip),%rdi        # 805c <_IO_stdin_used+0x5c>
    1193:	e8 b8 fe ff ff       	call   1050 <printf@plt>
    1198:	f2 0f 10 0d 10 71 00 	movsd  0x7110(%rip),%xmm1        # 82b0 <_IO_stdin_used+0x2b0>
    119f:	00 
    11a0:	66 0f ef c0          	pxor   %xmm0,%xmm0
    11a4:	f2 0f 5e c8          	divsd  %xmm0,%xmm1
    11a8:	f2 0f 10 05 38 71 00 	movsd  0x7138(%rip),%xmm0        # 82e8 <_IO_stdin_used+0x2e8>
    11af:	00 
    11b0:	f2 0f 11 4c 24 08    	movsd  %xmm1,0x8(%rsp)
    11b6:	e8 c5 09 00 00       	call   1b80 <floor.part.0>
    11bb:	48 8d 35 cd 6e 00 00 	lea    0x6ecd(%rip),%rsi        # 808f <_IO_stdin_used+0x8f>
    11c2:	b8 01 00 00 00       	mov    $0x1,%eax
    11c7:	48 8d 3d c5 6e 00 00 	lea    0x6ec5(%rip),%rdi        # 8093 <_IO_stdin_used+0x93>
    11ce:	e8 7d fe ff ff       	call   1050 <printf@plt>
    11d3:	f2 0f 10 05 d5 70 00 	movsd  0x70d5(%rip),%xmm0        # 82b0 <_IO_stdin_used+0x2b0>
    11da:	00 
    11db:	e8 a0 09 00 00       	call   1b80 <floor.part.0>
    11e0:	48 8d 35 bc 6e 00 00 	lea    0x6ebc(%rip),%rsi        # 80a3 <_IO_stdin_used+0xa3>
    11e7:	b8 01 00 00 00       	mov    $0x1,%eax
    11ec:	48 8d 3d a0 6e 00 00 	lea    0x6ea0(%rip),%rdi        # 8093 <_IO_stdin_used+0x93>
    11f3:	e8 58 fe ff ff       	call   1050 <printf@plt>
    11f8:	f2 0f 10 05 f0 70 00 	movsd  0x70f0(%rip),%xmm0        # 82f0 <_IO_stdin_used+0x2f0>
    11ff:	00 
    1200:	e8 7b 09 00 00       	call   1b80 <floor.part.0>
    1205:	48 8d 35 9b 6e 00 00 	lea    0x6e9b(%rip),%rsi        # 80a7 <_IO_stdin_used+0xa7>
    120c:	b8 01 00 00 00       	mov    $0x1,%eax
    1211:	48 8d 3d 7b 6e 00 00 	lea    0x6e7b(%rip),%rdi        # 8093 <_IO_stdin_used+0x93>
    1218:	e8 33 fe ff ff       	call   1050 <printf@plt>
    121d:	f2 0f 10 05 c3 70 00 	movsd  0x70c3(%rip),%xmm0        # 82e8 <_IO_stdin_used+0x2e8>
    1224:	00 
    1225:	e8 c6 08 00 00       	call   1af0 <trunc.part.0>
    122a:	48 8d 35 5e 6e 00 00 	lea    0x6e5e(%rip),%rsi        # 808f <_IO_stdin_used+0x8f>
    1231:	b8 01 00 00 00       	mov    $0x1,%eax
    1236:	48 8d 3d 6e 6e 00 00 	lea    0x6e6e(%rip),%rdi        # 80ab <_IO_stdin_used+0xab>
    123d:	e8 0e fe ff ff       	call   1050 <printf@plt>
    1242:	f2 0f 10 05 66 70 00 	movsd  0x7066(%rip),%xmm0        # 82b0 <_IO_stdin_used+0x2b0>
    1249:	00 
    124a:	e8 a1 08 00 00       	call   1af0 <trunc.part.0>
    124f:	48 8d 35 4d 6e 00 00 	lea    0x6e4d(%rip),%rsi        # 80a3 <_IO_stdin_used+0xa3>
    1256:	b8 01 00 00 00       	mov    $0x1,%eax
    125b:	48 8d 3d 49 6e 00 00 	lea    0x6e49(%rip),%rdi        # 80ab <_IO_stdin_used+0xab>
    1262:	e8 e9 fd ff ff       	call   1050 <printf@plt>
    1267:	f2 0f 10 05 89 70 00 	movsd  0x7089(%rip),%xmm0        # 82f8 <_IO_stdin_used+0x2f8>
    126e:	00 
    126f:	e8 7c 08 00 00       	call   1af0 <trunc.part.0>
    1274:	48 8d 35 40 6e 00 00 	lea    0x6e40(%rip),%rsi        # 80bb <_IO_stdin_used+0xbb>
    127b:	b8 01 00 00 00       	mov    $0x1,%eax
    1280:	48 8d 3d 24 6e 00 00 	lea    0x6e24(%rip),%rdi        # 80ab <_IO_stdin_used+0xab>
    1287:	e8 c4 fd ff ff       	call   1050 <printf@plt>
    128c:	f2 0f 10 05 6c 70 00 	movsd  0x706c(%rip),%xmm0        # 8300 <_IO_stdin_used+0x300>
    1293:	00 
    1294:	e8 57 08 00 00       	call   1af0 <trunc.part.0>
    1299:	48 8d 35 21 6e 00 00 	lea    0x6e21(%rip),%rsi        # 80c1 <_IO_stdin_used+0xc1>
    12a0:	b8 01 00 00 00       	mov    $0x1,%eax
    12a5:	48 8d 3d ff 6d 00 00 	lea    0x6dff(%rip),%rdi        # 80ab <_IO_stdin_used+0xab>
    12ac:	e8 9f fd ff ff       	call   1050 <printf@plt>
    12b1:	f2 0f 10 05 f7 6f 00 	movsd  0x6ff7(%rip),%xmm0        # 82b0 <_IO_stdin_used+0x2b0>
    12b8:	00 
    12b9:	b8 01 00 00 00       	mov    $0x1,%eax
    12be:	48 8d 35 de 6d 00 00 	lea    0x6dde(%rip),%rsi        # 80a3 <_IO_stdin_used+0xa3>
    12c5:	48 8d 3d ff 6d 00 00 	lea    0x6dff(%rip),%rdi        # 80cb <_IO_stdin_used+0xcb>
    12cc:	e8 7f fd ff ff       	call   1050 <printf@plt>
    12d1:	f2 0f 10 05 e7 6f 00 	movsd  0x6fe7(%rip),%xmm0        # 82c0 <_IO_stdin_used+0x2c0>
    12d8:	00 
    12d9:	b8 01 00 00 00       	mov    $0x1,%eax
    12de:	48 8d 35 aa 6d 00 00 	lea    0x6daa(%rip),%rsi        # 808f <_IO_stdin_used+0x8f>
    12e5:	48 8d 3d df 6d 00 00 	lea    0x6ddf(%rip),%rdi        # 80cb <_IO_stdin_used+0xcb>
    12ec:	e8 5f fd ff ff       	call   1050 <printf@plt>
    12f1:	f2 0f 10 05 c7 6f 00 	movsd  0x6fc7(%rip),%xmm0        # 82c0 <_IO_stdin_used+0x2c0>
    12f8:	00 
    12f9:	b8 01 00 00 00       	mov    $0x1,%eax
    12fe:	48 8d 35 d5 6d 00 00 	lea    0x6dd5(%rip),%rsi        # 80da <_IO_stdin_used+0xda>
    1305:	48 8d 3d bf 6d 00 00 	lea    0x6dbf(%rip),%rdi        # 80cb <_IO_stdin_used+0xcb>
    130c:	e8 3f fd ff ff       	call   1050 <printf@plt>
    1311:	f2 0f 10 05 ef 6f 00 	movsd  0x6fef(%rip),%xmm0        # 8308 <_IO_stdin_used+0x308>
    1318:	00 
    1319:	31 f6                	xor    %esi,%esi
    131b:	48 8d 7c 24 10       	lea    0x10(%rsp),%rdi
    1320:	48 c7 44 24 10 00 00 	movq   $0x0,0x10(%rsp)
    1327:	00 00 
    1329:	e8 92 12 00 00       	call   25c0 <_re_cordic>
    132e:	f2 0f 10 44 24 10    	movsd  0x10(%rsp),%xmm0
    1334:	b8 01 00 00 00       	mov    $0x1,%eax
    1339:	48 8d 35 9e 6d 00 00 	lea    0x6d9e(%rip),%rsi        # 80de <_IO_stdin_used+0xde>
    1340:	48 8d 3d 9c 6d 00 00 	lea    0x6d9c(%rip),%rdi        # 80e3 <_IO_stdin_used+0xe3>
    1347:	e8 04 fd ff ff       	call   1050 <printf@plt>
    134c:	f2 0f 10 05 bc 6f 00 	movsd  0x6fbc(%rip),%xmm0        # 8310 <_IO_stdin_used+0x310>
    1353:	00 
    1354:	31 f6                	xor    %esi,%esi
    1356:	48 8d 7c 24 10       	lea    0x10(%rsp),%rdi
    135b:	48 c7 44 24 10 00 00 	movq   $0x0,0x10(%rsp)
    1362:	00 00 
    1364:	e8 57 12 00 00       	call   25c0 <_re_cordic>
    1369:	f2 0f 10 44 24 10    	movsd  0x10(%rsp),%xmm0
    136f:	b8 01 00 00 00       	mov    $0x1,%eax
    1374:	48 8d 35 76 6d 00 00 	lea    0x6d76(%rip),%rsi        # 80f1 <_IO_stdin_used+0xf1>
    137b:	48 8d 3d 61 6d 00 00 	lea    0x6d61(%rip),%rdi        # 80e3 <_IO_stdin_used+0xe3>
    1382:	e8 c9 fc ff ff       	call   1050 <printf@plt>
    1387:	31 f6                	xor    %esi,%esi
    1389:	48 8d 7c 24 10       	lea    0x10(%rsp),%rdi
    138e:	66 0f ef c0          	pxor   %xmm0,%xmm0
    1392:	48 c7 44 24 10 00 00 	movq   $0x0,0x10(%rsp)
    1399:	00 00 
    139b:	e8 20 12 00 00       	call   25c0 <_re_cordic>
    13a0:	f2 0f 10 44 24 10    	movsd  0x10(%rsp),%xmm0
    13a6:	b8 01 00 00 00       	mov    $0x1,%eax
    13ab:	48 8d 35 f4 6e 00 00 	lea    0x6ef4(%rip),%rsi        # 82a6 <_IO_stdin_used+0x2a6>
    13b2:	48 8d 3d 2a 6d 00 00 	lea    0x6d2a(%rip),%rdi        # 80e3 <_IO_stdin_used+0xe3>
    13b9:	e8 92 fc ff ff       	call   1050 <printf@plt>
    13be:	f2 0f 10 05 42 6f 00 	movsd  0x6f42(%rip),%xmm0        # 8308 <_IO_stdin_used+0x308>
    13c5:	00 
    13c6:	48 8d 74 24 10       	lea    0x10(%rsp),%rsi
    13cb:	31 ff                	xor    %edi,%edi
    13cd:	48 c7 44 24 10 00 00 	movq   $0x0,0x10(%rsp)
    13d4:	00 00 
    13d6:	e8 e5 11 00 00       	call   25c0 <_re_cordic>
    13db:	f2 0f 10 44 24 10    	movsd  0x10(%rsp),%xmm0
    13e1:	b8 01 00 00 00       	mov    $0x1,%eax
    13e6:	48 8d 35 f1 6c 00 00 	lea    0x6cf1(%rip),%rsi        # 80de <_IO_stdin_used+0xde>
    13ed:	48 8d 3d 04 6d 00 00 	lea    0x6d04(%rip),%rdi        # 80f8 <_IO_stdin_used+0xf8>
    13f4:	e8 57 fc ff ff       	call   1050 <printf@plt>
    13f9:	f2 0f 10 05 0f 6f 00 	movsd  0x6f0f(%rip),%xmm0        # 8310 <_IO_stdin_used+0x310>
    1400:	00 
    1401:	48 8d 74 24 10       	lea    0x10(%rsp),%rsi
    1406:	31 ff                	xor    %edi,%edi
    1408:	48 c7 44 24 10 00 00 	movq   $0x0,0x10(%rsp)
    140f:	00 00 
    1411:	e8 aa 11 00 00       	call   25c0 <_re_cordic>
    1416:	f2 0f 10 44 24 10    	movsd  0x10(%rsp),%xmm0
    141c:	b8 01 00 00 00       	mov    $0x1,%eax
    1421:	48 8d 35 c9 6c 00 00 	lea    0x6cc9(%rip),%rsi        # 80f1 <_IO_stdin_used+0xf1>
    1428:	48 8d 3d c9 6c 00 00 	lea    0x6cc9(%rip),%rdi        # 80f8 <_IO_stdin_used+0xf8>
    142f:	e8 1c fc ff ff       	call   1050 <printf@plt>
    1434:	48 8d 74 24 10       	lea    0x10(%rsp),%rsi
    1439:	31 ff                	xor    %edi,%edi
    143b:	66 0f ef c0          	pxor   %xmm0,%xmm0
    143f:	48 c7 44 24 10 00 00 	movq   $0x0,0x10(%rsp)
    1446:	00 00 
    1448:	e8 73 11 00 00       	call   25c0 <_re_cordic>
    144d:	f2 0f 10 44 24 10    	movsd  0x10(%rsp),%xmm0
    1453:	b8 01 00 00 00       	mov    $0x1,%eax
    1458:	48 8d 35 47 6e 00 00 	lea    0x6e47(%rip),%rsi        # 82a6 <_IO_stdin_used+0x2a6>
    145f:	48 8d 3d 92 6c 00 00 	lea    0x6c92(%rip),%rdi        # 80f8 <_IO_stdin_used+0xf8>
    1466:	e8 e5 fb ff ff       	call   1050 <printf@plt>
    146b:	f2 0f 10 05 95 6e 00 	movsd  0x6e95(%rip),%xmm0        # 8308 <_IO_stdin_used+0x308>
    1472:	00 
    1473:	e8 b8 13 00 00       	call   2830 <tan>
    1478:	48 8d 35 5f 6c 00 00 	lea    0x6c5f(%rip),%rsi        # 80de <_IO_stdin_used+0xde>
    147f:	b8 01 00 00 00       	mov    $0x1,%eax
    1484:	48 8d 3d 7b 6c 00 00 	lea    0x6c7b(%rip),%rdi        # 8106 <_IO_stdin_used+0x106>
    148b:	e8 c0 fb ff ff       	call   1050 <printf@plt>
    1490:	f2 0f 10 05 78 6e 00 	movsd  0x6e78(%rip),%xmm0        # 8310 <_IO_stdin_used+0x310>
    1497:	00 
    1498:	e8 93 13 00 00       	call   2830 <tan>
    149d:	48 8d 35 4d 6c 00 00 	lea    0x6c4d(%rip),%rsi        # 80f1 <_IO_stdin_used+0xf1>
    14a4:	b8 01 00 00 00       	mov    $0x1,%eax
    14a9:	48 8d 3d 56 6c 00 00 	lea    0x6c56(%rip),%rdi        # 8106 <_IO_stdin_used+0x106>
    14b0:	e8 9b fb ff ff       	call   1050 <printf@plt>
    14b5:	66 0f ef c0          	pxor   %xmm0,%xmm0
    14b9:	e8 72 13 00 00       	call   2830 <tan>
    14be:	48 8d 35 e1 6d 00 00 	lea    0x6de1(%rip),%rsi        # 82a6 <_IO_stdin_used+0x2a6>
    14c5:	b8 01 00 00 00       	mov    $0x1,%eax
    14ca:	48 8d 3d 35 6c 00 00 	lea    0x6c35(%rip),%rdi        # 8106 <_IO_stdin_used+0x106>
    14d1:	e8 7a fb ff ff       	call   1050 <printf@plt>
    14d6:	f2 0f 10 05 e2 6d 00 	movsd  0x6de2(%rip),%xmm0        # 82c0 <_IO_stdin_used+0x2c0>
    14dd:	00 
    14de:	bf 03 00 00 00       	mov    $0x3,%edi
    14e3:	e8 a8 1f 00 00       	call   3490 <ldexp>
    14e8:	48 8d 35 25 6c 00 00 	lea    0x6c25(%rip),%rsi        # 8114 <_IO_stdin_used+0x114>
    14ef:	b8 01 00 00 00       	mov    $0x1,%eax
    14f4:	48 8d 3d 20 6c 00 00 	lea    0x6c20(%rip),%rdi        # 811b <_IO_stdin_used+0x11b>
    14fb:	e8 50 fb ff ff       	call   1050 <printf@plt>
    1500:	f2 0f 10 05 c0 6d 00 	movsd  0x6dc0(%rip),%xmm0        # 82c8 <_IO_stdin_used+0x2c8>
    1507:	00 
    1508:	bf 02 00 00 00       	mov    $0x2,%edi
    150d:	e8 7e 1f 00 00       	call   3490 <ldexp>
    1512:	48 8d 35 12 6c 00 00 	lea    0x6c12(%rip),%rsi        # 812b <_IO_stdin_used+0x12b>
    1519:	b8 01 00 00 00       	mov    $0x1,%eax
    151e:	48 8d 3d f6 6b 00 00 	lea    0x6bf6(%rip),%rdi        # 811b <_IO_stdin_used+0x11b>
    1525:	e8 26 fb ff ff       	call   1050 <printf@plt>
    152a:	f2 0f 10 05 7e 6d 00 	movsd  0x6d7e(%rip),%xmm0        # 82b0 <_IO_stdin_used+0x2b0>
    1531:	00 
    1532:	bf 64 00 00 00       	mov    $0x64,%edi
    1537:	e8 54 1f 00 00       	call   3490 <ldexp>
    153c:	48 8d 35 ed 6b 00 00 	lea    0x6bed(%rip),%rsi        # 8130 <_IO_stdin_used+0x130>
    1543:	b8 01 00 00 00       	mov    $0x1,%eax
    1548:	48 8d 3d cc 6b 00 00 	lea    0x6bcc(%rip),%rdi        # 811b <_IO_stdin_used+0x11b>
    154f:	e8 fc fa ff ff       	call   1050 <printf@plt>
    1554:	66 0f ef c0          	pxor   %xmm0,%xmm0
    1558:	e8 e3 2a 00 00       	call   4040 <log>
    155d:	48 8d 35 fe 6c 00 00 	lea    0x6cfe(%rip),%rsi        # 8262 <_IO_stdin_used+0x262>
    1564:	b8 01 00 00 00       	mov    $0x1,%eax
    1569:	48 8d 3d c7 6b 00 00 	lea    0x6bc7(%rip),%rdi        # 8137 <_IO_stdin_used+0x137>
    1570:	e8 db fa ff ff       	call   1050 <printf@plt>
    1575:	f2 0f 10 05 9b 6d 00 	movsd  0x6d9b(%rip),%xmm0        # 8318 <_IO_stdin_used+0x318>
    157c:	00 
    157d:	e8 be 2a 00 00       	call   4040 <log>
    1582:	48 8d 35 c2 6b 00 00 	lea    0x6bc2(%rip),%rsi        # 814b <_IO_stdin_used+0x14b>
    1589:	b8 01 00 00 00       	mov    $0x1,%eax
    158e:	48 8d 3d a2 6b 00 00 	lea    0x6ba2(%rip),%rdi        # 8137 <_IO_stdin_used+0x137>
    1595:	e8 b6 fa ff ff       	call   1050 <printf@plt>
    159a:	f2 0f 10 05 7e 6d 00 	movsd  0x6d7e(%rip),%xmm0        # 8320 <_IO_stdin_used+0x320>
    15a1:	00 
    15a2:	e8 99 2a 00 00       	call   4040 <log>
    15a7:	48 8d 35 97 6b 00 00 	lea    0x6b97(%rip),%rsi        # 8145 <_IO_stdin_used+0x145>
    15ae:	b8 01 00 00 00       	mov    $0x1,%eax
    15b3:	48 8d 3d 7d 6b 00 00 	lea    0x6b7d(%rip),%rdi        # 8137 <_IO_stdin_used+0x137>
    15ba:	e8 91 fa ff ff       	call   1050 <printf@plt>
    15bf:	f2 0f 10 44 24 08    	movsd  0x8(%rsp),%xmm0
    15c5:	e8 76 2a 00 00       	call   4040 <log>
    15ca:	48 8d 35 7e 6b 00 00 	lea    0x6b7e(%rip),%rsi        # 814f <_IO_stdin_used+0x14f>
    15d1:	b8 01 00 00 00       	mov    $0x1,%eax
    15d6:	48 8d 3d 5a 6b 00 00 	lea    0x6b5a(%rip),%rdi        # 8137 <_IO_stdin_used+0x137>
    15dd:	e8 6e fa ff ff       	call   1050 <printf@plt>
    15e2:	f2 0f 10 05 d6 6c 00 	movsd  0x6cd6(%rip),%xmm0        # 82c0 <_IO_stdin_used+0x2c0>
    15e9:	00 
    15ea:	e8 31 33 00 00       	call   4920 <log2>
    15ef:	48 8d 35 62 6b 00 00 	lea    0x6b62(%rip),%rsi        # 8158 <_IO_stdin_used+0x158>
    15f6:	b8 01 00 00 00       	mov    $0x1,%eax
    15fb:	48 8d 3d 5a 6b 00 00 	lea    0x6b5a(%rip),%rdi        # 815c <_IO_stdin_used+0x15c>
    1602:	e8 49 fa ff ff       	call   1050 <printf@plt>
    1607:	f2 0f 10 05 19 6d 00 	movsd  0x6d19(%rip),%xmm0        # 8328 <_IO_stdin_used+0x328>
    160e:	00 
    160f:	e8 0c 33 00 00       	call   4920 <log2>
    1614:	48 8d 35 50 6b 00 00 	lea    0x6b50(%rip),%rsi        # 816b <_IO_stdin_used+0x16b>
    161b:	b8 01 00 00 00       	mov    $0x1,%eax
    1620:	48 8d 3d 35 6b 00 00 	lea    0x6b35(%rip),%rdi        # 815c <_IO_stdin_used+0x15c>
    1627:	e8 24 fa ff ff       	call   1050 <printf@plt>
    162c:	f2 0f 10 05 fc 6c 00 	movsd  0x6cfc(%rip),%xmm0        # 8330 <_IO_stdin_used+0x330>
    1633:	00 
    1634:	e8 e7 32 00 00       	call   4920 <log2>
    1639:	48 8d 35 33 6b 00 00 	lea    0x6b33(%rip),%rsi        # 8173 <_IO_stdin_used+0x173>
    1640:	b8 01 00 00 00       	mov    $0x1,%eax
    1645:	48 8d 3d 10 6b 00 00 	lea    0x6b10(%rip),%rdi        # 815c <_IO_stdin_used+0x15c>
    164c:	e8 ff f9 ff ff       	call   1050 <printf@plt>
    1651:	f2 0f 10 05 df 6c 00 	movsd  0x6cdf(%rip),%xmm0        # 8338 <_IO_stdin_used+0x338>
    1658:	00 
    1659:	e8 92 30 00 00       	call   46f0 <log10>
    165e:	48 8d 35 20 6b 00 00 	lea    0x6b20(%rip),%rsi        # 8185 <_IO_stdin_used+0x185>
    1665:	b8 01 00 00 00       	mov    $0x1,%eax
    166a:	48 8d 3d 19 6b 00 00 	lea    0x6b19(%rip),%rdi        # 818a <_IO_stdin_used+0x18a>
    1671:	e8 da f9 ff ff       	call   1050 <printf@plt>
    1676:	f2 0f 10 05 c2 6c 00 	movsd  0x6cc2(%rip),%xmm0        # 8340 <_IO_stdin_used+0x340>
    167d:	00 
    167e:	e8 6d 30 00 00       	call   46f0 <log10>
    1683:	48 8d 35 10 6b 00 00 	lea    0x6b10(%rip),%rsi        # 819a <_IO_stdin_used+0x19a>
    168a:	b8 01 00 00 00       	mov    $0x1,%eax
    168f:	48 8d 3d f4 6a 00 00 	lea    0x6af4(%rip),%rdi        # 818a <_IO_stdin_used+0x18a>
    1696:	e8 b5 f9 ff ff       	call   1050 <printf@plt>
    169b:	f2 0f 10 05 a5 6c 00 	movsd  0x6ca5(%rip),%xmm0        # 8348 <_IO_stdin_used+0x348>
    16a2:	00 
    16a3:	e8 48 30 00 00       	call   46f0 <log10>
    16a8:	48 8d 35 f2 6a 00 00 	lea    0x6af2(%rip),%rsi        # 81a1 <_IO_stdin_used+0x1a1>
    16af:	b8 01 00 00 00       	mov    $0x1,%eax
    16b4:	48 8d 3d cf 6a 00 00 	lea    0x6acf(%rip),%rdi        # 818a <_IO_stdin_used+0x18a>
    16bb:	e8 90 f9 ff ff       	call   1050 <printf@plt>
    16c0:	f2 0f 10 05 e8 6b 00 	movsd  0x6be8(%rip),%xmm0        # 82b0 <_IO_stdin_used+0x2b0>
    16c7:	00 
    16c8:	bf 00 40 00 00       	mov    $0x4000,%edi
    16cd:	e8 be 1d 00 00       	call   3490 <ldexp>
    16d2:	48 8d 35 cd 6a 00 00 	lea    0x6acd(%rip),%rsi        # 81a6 <_IO_stdin_used+0x1a6>
    16d9:	b8 01 00 00 00       	mov    $0x1,%eax
    16de:	48 8d 3d 36 6a 00 00 	lea    0x6a36(%rip),%rdi        # 811b <_IO_stdin_used+0x11b>
    16e5:	e8 66 f9 ff ff       	call   1050 <printf@plt>
    16ea:	f2 0f 10 05 be 6b 00 	movsd  0x6bbe(%rip),%xmm0        # 82b0 <_IO_stdin_used+0x2b0>
    16f1:	00 
    16f2:	bf 00 c0 ff ff       	mov    $0xffffc000,%edi
    16f7:	e8 94 1d 00 00       	call   3490 <ldexp>
    16fc:	48 8d 35 ac 6a 00 00 	lea    0x6aac(%rip),%rsi        # 81af <_IO_stdin_used+0x1af>
    1703:	b8 01 00 00 00       	mov    $0x1,%eax
    1708:	48 8d 3d 0c 6a 00 00 	lea    0x6a0c(%rip),%rdi        # 811b <_IO_stdin_used+0x11b>
    170f:	e8 3c f9 ff ff       	call   1050 <printf@plt>
    1714:	f2 0f 10 05 94 6b 00 	movsd  0x6b94(%rip),%xmm0        # 82b0 <_IO_stdin_used+0x2b0>
    171b:	00 
    171c:	e8 df 25 00 00       	call   3d00 <exp>
    1721:	48 8d 35 7b 69 00 00 	lea    0x697b(%rip),%rsi        # 80a3 <_IO_stdin_used+0xa3>
    1728:	b8 01 00 00 00       	mov    $0x1,%eax
    172d:	48 8d 3d e9 69 00 00 	lea    0x69e9(%rip),%rdi        # 811d <_IO_stdin_used+0x11d>
    1734:	e8 17 f9 ff ff       	call   1050 <printf@plt>
    1739:	f2 0f 10 05 7f 6b 00 	movsd  0x6b7f(%rip),%xmm0        # 82c0 <_IO_stdin_used+0x2c0>
    1740:	00 
    1741:	e8 ba 25 00 00       	call   3d00 <exp>
    1746:	48 8d 35 0b 6a 00 00 	lea    0x6a0b(%rip),%rsi        # 8158 <_IO_stdin_used+0x158>
    174d:	b8 01 00 00 00       	mov    $0x1,%eax
    1752:	48 8d 3d c4 69 00 00 	lea    0x69c4(%rip),%rdi        # 811d <_IO_stdin_used+0x11d>
    1759:	e8 f2 f8 ff ff       	call   1050 <printf@plt>
    175e:	f2 0f 10 05 d2 6b 00 	movsd  0x6bd2(%rip),%xmm0        # 8338 <_IO_stdin_used+0x338>
    1765:	00 
    1766:	e8 95 25 00 00       	call   3d00 <exp>
    176b:	48 8d 35 13 6a 00 00 	lea    0x6a13(%rip),%rsi        # 8185 <_IO_stdin_used+0x185>
    1772:	b8 01 00 00 00       	mov    $0x1,%eax
    1777:	48 8d 3d 9f 69 00 00 	lea    0x699f(%rip),%rdi        # 811d <_IO_stdin_used+0x11d>
    177e:	e8 cd f8 ff ff       	call   1050 <printf@plt>
    1783:	68 ff 3f 00 00       	push   $0x3fff
    1788:	bf 01 00 00 00       	mov    $0x1,%edi
    178d:	48 b8 00 00 00 00 00 	movabs $0x8000000000000000,%rax
    1794:	00 00 80 
    1797:	50                   	push   %rax
    1798:	e8 13 22 00 00       	call   39b0 <ldexpl>
    179d:	dd 5c 24 18          	fstpl  0x18(%rsp)
    17a1:	f2 0f 10 44 24 18    	movsd  0x18(%rsp),%xmm0
    17a7:	e8 94 02 00 00       	call   1a40 <decompose>
    17ac:	f2 0f 10 05 9c 6b 00 	movsd  0x6b9c(%rip),%xmm0        # 8350 <_IO_stdin_used+0x350>
    17b3:	00 
    17b4:	e8 87 02 00 00       	call   1a40 <decompose>
    17b9:	f2 0f 10 05 37 6b 00 	movsd  0x6b37(%rip),%xmm0        # 82f8 <_IO_stdin_used+0x2f8>
    17c0:	00 
    17c1:	e8 7a 02 00 00       	call   1a40 <decompose>
    17c6:	f2 0f 10 05 8a 6b 00 	movsd  0x6b8a(%rip),%xmm0        # 8358 <_IO_stdin_used+0x358>
    17cd:	00 
    17ce:	e8 6d 02 00 00       	call   1a40 <decompose>
    17d3:	5a                   	pop    %rdx
    17d4:	59                   	pop    %rcx
    17d5:	48 8b 44 24 18       	mov    0x18(%rsp),%rax
    17da:	64 48 2b 04 25 28 00 	sub    %fs:0x28,%rax
    17e1:	00 00 
    17e3:	75 08                	jne    17ed <main+0x76d>
    17e5:	48 83 c4 20          	add    $0x20,%rsp
    17e9:	31 c0                	xor    %eax,%eax
    17eb:	5b                   	pop    %rbx
    17ec:	c3                   	ret
    17ed:	e8 4e f8 ff ff       	call   1040 <__stack_chk_fail@plt>
    17f2:	66 2e 0f 1f 84 00 00 	cs nopw 0x0(%rax,%rax,1)
    17f9:	00 00 00 
    17fc:	0f 1f 40 00          	nopl   0x0(%rax)

0000000000001800 <_start>:
    1800:	f3 0f 1e fa          	endbr64
    1804:	31 ed                	xor    %ebp,%ebp
    1806:	49 89 d1             	mov    %rdx,%r9
    1809:	5e                   	pop    %rsi
    180a:	48 89 e2             	mov    %rsp,%rdx
    180d:	48 83 e4 f0          	and    $0xfffffffffffffff0,%rsp
    1811:	50                   	push   %rax
    1812:	54                   	push   %rsp
    1813:	45 31 c0             	xor    %r8d,%r8d
    1816:	31 c9                	xor    %ecx,%ecx
    1818:	48 8d 3d 61 f8 ff ff 	lea    -0x79f(%rip),%rdi        # 1080 <main>
    181f:	ff 15 9b 97 00 00    	call   *0x979b(%rip)        # afc0 <__libc_start_main@GLIBC_2.34>
    1825:	f4                   	hlt
    1826:	66 2e 0f 1f 84 00 00 	cs nopw 0x0(%rax,%rax,1)
    182d:	00 00 00 
    1830:	48 8d 3d f9 97 00 00 	lea    0x97f9(%rip),%rdi        # b030 <__TMC_END__>
    1837:	48 8d 05 f2 97 00 00 	lea    0x97f2(%rip),%rax        # b030 <__TMC_END__>
    183e:	48 39 f8             	cmp    %rdi,%rax
    1841:	74 15                	je     1858 <_start+0x58>
    1843:	48 8b 05 7e 97 00 00 	mov    0x977e(%rip),%rax        # afc8 <_ITM_deregisterTMCloneTable@Base>
    184a:	48 85 c0             	test   %rax,%rax
    184d:	74 09                	je     1858 <_start+0x58>
    184f:	ff e0                	jmp    *%rax
    1851:	0f 1f 80 00 00 00 00 	nopl   0x0(%rax)
    1858:	c3                   	ret
    1859:	0f 1f 80 00 00 00 00 	nopl   0x0(%rax)
    1860:	48 8d 3d c9 97 00 00 	lea    0x97c9(%rip),%rdi        # b030 <__TMC_END__>
    1867:	48 8d 35 c2 97 00 00 	lea    0x97c2(%rip),%rsi        # b030 <__TMC_END__>
    186e:	48 29 fe             	sub    %rdi,%rsi
    1871:	48 89 f0             	mov    %rsi,%rax
    1874:	48 c1 ee 3f          	shr    $0x3f,%rsi
    1878:	48 c1 f8 03          	sar    $0x3,%rax
    187c:	48 01 c6             	add    %rax,%rsi
    187f:	48 d1 fe             	sar    $1,%rsi
    1882:	74 14                	je     1898 <_start+0x98>
    1884:	48 8b 05 4d 97 00 00 	mov    0x974d(%rip),%rax        # afd8 <_ITM_registerTMCloneTable@Base>
    188b:	48 85 c0             	test   %rax,%rax
    188e:	74 08                	je     1898 <_start+0x98>
    1890:	ff e0                	jmp    *%rax
    1892:	66 0f 1f 44 00 00    	nopw   0x0(%rax,%rax,1)
    1898:	c3                   	ret
    1899:	0f 1f 80 00 00 00 00 	nopl   0x0(%rax)
    18a0:	f3 0f 1e fa          	endbr64
    18a4:	80 3d 95 97 00 00 00 	cmpb   $0x0,0x9795(%rip)        # b040 <__bss_start>
    18ab:	75 33                	jne    18e0 <_start+0xe0>
    18ad:	55                   	push   %rbp
    18ae:	48 83 3d 2a 97 00 00 	cmpq   $0x0,0x972a(%rip)        # afe0 <__cxa_finalize@GLIBC_2.2.5>
    18b5:	00 
    18b6:	48 89 e5             	mov    %rsp,%rbp
    18b9:	74 0d                	je     18c8 <_start+0xc8>
    18bb:	48 8b 3d 5e 97 00 00 	mov    0x975e(%rip),%rdi        # b020 <__dso_handle>
    18c2:	ff 15 18 97 00 00    	call   *0x9718(%rip)        # afe0 <__cxa_finalize@GLIBC_2.2.5>
    18c8:	e8 63 ff ff ff       	call   1830 <_start+0x30>
    18cd:	c6 05 6c 97 00 00 01 	movb   $0x1,0x976c(%rip)        # b040 <__bss_start>
    18d4:	5d                   	pop    %rbp
    18d5:	c3                   	ret
    18d6:	66 2e 0f 1f 84 00 00 	cs nopw 0x0(%rax,%rax,1)
    18dd:	00 00 00 
    18e0:	c3                   	ret
    18e1:	66 66 2e 0f 1f 84 00 	data16 cs nopw 0x0(%rax,%rax,1)
    18e8:	00 00 00 00 
    18ec:	0f 1f 40 00          	nopl   0x0(%rax)
    18f0:	f3 0f 1e fa          	endbr64
    18f4:	e9 67 ff ff ff       	jmp    1860 <_start+0x60>
    18f9:	0f 1f 80 00 00 00 00 	nopl   0x0(%rax)

0000000000001900 <re_break_double>:
    1900:	48 83 ec 28          	sub    $0x28,%rsp
    1904:	ba 08 00 00 00       	mov    $0x8,%edx
    1909:	f2 0f 11 44 24 08    	movsd  %xmm0,0x8(%rsp)
    190f:	48 8d 7c 24 10       	lea    0x10(%rsp),%rdi
    1914:	64 48 8b 34 25 28 00 	mov    %fs:0x28,%rsi
    191b:	00 00 
    191d:	48 89 74 24 18       	mov    %rsi,0x18(%rsp)
    1922:	48 8d 74 24 08       	lea    0x8(%rsp),%rsi
    1927:	e8 84 38 00 00       	call   51b0 <memmove>
    192c:	48 8b 54 24 10       	mov    0x10(%rsp),%rdx
    1931:	48 b9 ff ff ff ff ff 	movabs $0xfffffffffffff,%rcx
    1938:	ff 0f 00 
    193b:	48 89 d0             	mov    %rdx,%rax
    193e:	49 89 d0             	mov    %rdx,%r8
    1941:	48 21 ca             	and    %rcx,%rdx
    1944:	48 c1 e8 34          	shr    $0x34,%rax
    1948:	48 89 d1             	mov    %rdx,%rcx
    194b:	49 c1 e8 3f          	shr    $0x3f,%r8
    194f:	48 0f ba e9 34       	bts    $0x34,%rcx
    1954:	66 25 ff 07          	and    $0x7ff,%ax
    1958:	48 0f 45 d1          	cmovne %rcx,%rdx
    195c:	8d 8c 00 02 f8 ff ff 	lea    -0x7fe(%rax,%rax,1),%ecx
    1963:	31 f6                	xor    %esi,%esi
    1965:	31 ff                	xor    %edi,%edi
    1967:	48 b8 ff ff ff ff ff 	movabs $0x1fffffffffffff,%rax
    196e:	ff 1f 00 
    1971:	66 81 e1 fe 0f       	and    $0xffe,%cx
    1976:	66 89 ce             	mov    %cx,%si
    1979:	48 21 c2             	and    %rax,%rdx
    197c:	48 89 f9             	mov    %rdi,%rcx
    197f:	48 b8 00 00 00 00 00 	movabs $0xffe0000000000000,%rax
    1986:	00 e0 ff 
    1989:	48 21 c1             	and    %rax,%rcx
    198c:	66 44 09 c6          	or     %r8w,%si
    1990:	48 09 ca             	or     %rcx,%rdx
    1993:	48 8b 44 24 18       	mov    0x18(%rsp),%rax
    1998:	64 48 2b 04 25 28 00 	sub    %fs:0x28,%rax
    199f:	00 00 
    19a1:	75 08                	jne    19ab <re_break_double+0xab>
    19a3:	48 89 f0             	mov    %rsi,%rax
    19a6:	48 83 c4 28          	add    $0x28,%rsp
    19aa:	c3                   	ret
    19ab:	e8 90 f6 ff ff       	call   1040 <__stack_chk_fail@plt>

00000000000019b0 <re_make_double>:
    19b0:	48 ba ff ff ff ff ff 	movabs $0xfffffffffffff,%rdx
    19b7:	ff 0f 00 
    19ba:	48 83 ec 28          	sub    $0x28,%rsp
    19be:	64 48 8b 04 25 28 00 	mov    %fs:0x28,%rax
    19c5:	00 00 
    19c7:	48 89 44 24 18       	mov    %rax,0x18(%rsp)
    19cc:	48 89 f8             	mov    %rdi,%rax
    19cf:	c1 e7 04             	shl    $0x4,%edi
    19d2:	48 21 d6             	and    %rdx,%rsi
    19d5:	48 ba 00 00 00 00 00 	movabs $0x7ff0000000000000,%rdx
    19dc:	00 f0 7f 
    19df:	66 c1 ff 05          	sar    $0x5,%di
    19e3:	0f bf ff             	movswl %di,%edi
    19e6:	81 c7 ff 03 00 00    	add    $0x3ff,%edi
    19ec:	48 c1 e7 34          	shl    $0x34,%rdi
    19f0:	48 21 d7             	and    %rdx,%rdi
    19f3:	ba 08 00 00 00       	mov    $0x8,%edx
    19f8:	48 c1 e0 3f          	shl    $0x3f,%rax
    19fc:	48 09 f0             	or     %rsi,%rax
    19ff:	48 8d 74 24 08       	lea    0x8(%rsp),%rsi
    1a04:	48 09 f8             	or     %rdi,%rax
    1a07:	48 8d 7c 24 10       	lea    0x10(%rsp),%rdi
    1a0c:	48 89 44 24 08       	mov    %rax,0x8(%rsp)
    1a11:	e8 9a 37 00 00       	call   51b0 <memmove>
    1a16:	f2 0f 10 44 24 10    	movsd  0x10(%rsp),%xmm0
    1a1c:	48 8b 44 24 18       	mov    0x18(%rsp),%rax
    1a21:	64 48 2b 04 25 28 00 	sub    %fs:0x28,%rax
    1a28:	00 00 
    1a2a:	75 05                	jne    1a31 <re_make_double+0x81>
    1a2c:	48 83 c4 28          	add    $0x28,%rsp
    1a30:	c3                   	ret
    1a31:	e8 0a f6 ff ff       	call   1040 <__stack_chk_fail@plt>
    1a36:	66 2e 0f 1f 84 00 00 	cs nopw 0x0(%rax,%rax,1)
    1a3d:	00 00 00 

0000000000001a40 <decompose>:
    1a40:	55                   	push   %rbp
    1a41:	53                   	push   %rbx
    1a42:	48 83 ec 28          	sub    $0x28,%rsp
    1a46:	f2 0f 11 44 24 08    	movsd  %xmm0,0x8(%rsp)
    1a4c:	64 48 8b 04 25 28 00 	mov    %fs:0x28,%rax
    1a53:	00 00 
    1a55:	48 89 44 24 18       	mov    %rax,0x18(%rsp)
    1a5a:	31 c0                	xor    %eax,%eax
    1a5c:	e8 9f fe ff ff       	call   1900 <re_break_double>
    1a61:	48 8d 74 24 08       	lea    0x8(%rsp),%rsi
    1a66:	48 8d 7c 24 10       	lea    0x10(%rsp),%rdi
    1a6b:	48 c7 44 24 10 00 00 	movq   $0x0,0x10(%rsp)
    1a72:	00 00 
    1a74:	48 89 d5             	mov    %rdx,%rbp
    1a77:	ba 08 00 00 00       	mov    $0x8,%edx
    1a7c:	48 89 c3             	mov    %rax,%rbx
    1a7f:	e8 2c 37 00 00       	call   51b0 <memmove>
    1a84:	66 0f ef c9          	pxor   %xmm1,%xmm1
    1a88:	89 da                	mov    %ebx,%edx
    1a8a:	89 de                	mov    %ebx,%esi
    1a8c:	48 b8 ff ff ff ff ff 	movabs $0x1fffffffffffff,%rax
    1a93:	ff 1f 00 
    1a96:	c1 e2 04             	shl    $0x4,%edx
    1a99:	f2 0f 10 44 24 08    	movsd  0x8(%rsp),%xmm0
    1a9f:	83 e6 01             	and    $0x1,%esi
    1aa2:	48 21 c5             	and    %rax,%rbp
    1aa5:	66 c1 fa 05          	sar    $0x5,%dx
    1aa9:	48 8d 3d 94 65 00 00 	lea    0x6594(%rip),%rdi        # 8044 <_IO_stdin_used+0x44>
    1ab0:	b8 02 00 00 00       	mov    $0x2,%eax
    1ab5:	f2 48 0f 2a cd       	cvtsi2sd %rbp,%xmm1
    1aba:	f2 0f 59 0d e6 67 00 	mulsd  0x67e6(%rip),%xmm1        # 82a8 <_IO_stdin_used+0x2a8>
    1ac1:	00 
    1ac2:	0f bf d2             	movswl %dx,%edx
    1ac5:	e8 86 f5 ff ff       	call   1050 <printf@plt>
    1aca:	48 8b 44 24 18       	mov    0x18(%rsp),%rax
    1acf:	64 48 2b 04 25 28 00 	sub    %fs:0x28,%rax
    1ad6:	00 00 
    1ad8:	75 07                	jne    1ae1 <decompose+0xa1>
    1ada:	48 83 c4 28          	add    $0x28,%rsp
    1ade:	5b                   	pop    %rbx
    1adf:	5d                   	pop    %rbp
    1ae0:	c3                   	ret
    1ae1:	e8 5a f5 ff ff       	call   1040 <__stack_chk_fail@plt>
    1ae6:	66 2e 0f 1f 84 00 00 	cs nopw 0x0(%rax,%rax,1)
    1aed:	00 00 00 

0000000000001af0 <trunc.part.0>:
    1af0:	48 83 ec 08          	sub    $0x8,%rsp
    1af4:	e8 07 fe ff ff       	call   1900 <re_break_double>
    1af9:	48 89 d7             	mov    %rdx,%rdi
    1afc:	48 89 c2             	mov    %rax,%rdx
    1aff:	48 89 c6             	mov    %rax,%rsi
    1b02:	c1 e2 04             	shl    $0x4,%edx
    1b05:	66 c1 fa 05          	sar    $0x5,%dx
    1b09:	78 61                	js     1b6c <trunc.part.0+0x7c>
    1b0b:	48 b8 ff ff ff ff ff 	movabs $0x1fffffffffffff,%rax
    1b12:	ff 1f 00 
    1b15:	49 89 c0             	mov    %rax,%r8
    1b18:	49 21 f8             	and    %rdi,%r8
    1b1b:	66 83 fa 34          	cmp    $0x34,%dx
    1b1f:	7f 14                	jg     1b35 <trunc.part.0+0x45>
    1b21:	b9 35 00 00 00       	mov    $0x35,%ecx
    1b26:	49 83 c9 ff          	or     $0xffffffffffffffff,%r9
    1b2a:	29 d1                	sub    %edx,%ecx
    1b2c:	49 d3 e1             	shl    %cl,%r9
    1b2f:	4d 21 c8             	and    %r9,%r8
    1b32:	49 21 c0             	and    %rax,%r8
    1b35:	48 89 f0             	mov    %rsi,%rax
    1b38:	48 89 f9             	mov    %rdi,%rcx
    1b3b:	81 e2 ff 07 00 00    	and    $0x7ff,%edx
    1b41:	48 83 c4 08          	add    $0x8,%rsp
    1b45:	48 be 00 00 00 00 00 	movabs $0xffe0000000000000,%rsi
    1b4c:	00 e0 ff 
    1b4f:	48 01 d2             	add    %rdx,%rdx
    1b52:	48 25 01 f0 ff ff    	and    $0xfffffffffffff001,%rax
    1b58:	48 21 f1             	and    %rsi,%rcx
    1b5b:	48 09 d0             	or     %rdx,%rax
    1b5e:	4c 09 c1             	or     %r8,%rcx
    1b61:	48 89 c7             	mov    %rax,%rdi
    1b64:	48 89 ce             	mov    %rcx,%rsi
    1b67:	e9 44 fe ff ff       	jmp    19b0 <re_make_double>
    1b6c:	45 31 c0             	xor    %r8d,%r8d
    1b6f:	ba 01 fc ff ff       	mov    $0xfffffc01,%edx
    1b74:	eb bf                	jmp    1b35 <trunc.part.0+0x45>
    1b76:	66 2e 0f 1f 84 00 00 	cs nopw 0x0(%rax,%rax,1)
    1b7d:	00 00 00 

0000000000001b80 <floor.part.0>:
    1b80:	66 0f 2e c0          	ucomisd %xmm0,%xmm0
    1b84:	0f 8a ad 00 00 00    	jp     1c37 <floor.part.0+0xb7>
    1b8a:	53                   	push   %rbx
    1b8b:	66 0f 28 c8          	movapd %xmm0,%xmm1
    1b8f:	66 0f ef c0          	pxor   %xmm0,%xmm0
    1b93:	48 83 ec 10          	sub    $0x10,%rsp
    1b97:	f2 0f 10 15 11 67 00 	movsd  0x6711(%rip),%xmm2        # 82b0 <_IO_stdin_used+0x2b0>
    1b9e:	00 
    1b9f:	f2 0f 5e d0          	divsd  %xmm0,%xmm2
    1ba3:	66 0f 2e ca          	ucomisd %xmm2,%xmm1
    1ba7:	7a 02                	jp     1bab <floor.part.0+0x2b>
    1ba9:	74 4b                	je     1bf6 <floor.part.0+0x76>
    1bab:	66 0f 28 c2          	movapd %xmm2,%xmm0
    1baf:	66 0f 57 05 39 68 00 	xorpd  0x6839(%rip),%xmm0        # 83f0 <_IO_stdin_used+0x3f0>
    1bb6:	00 
    1bb7:	66 0f 2e c8          	ucomisd %xmm0,%xmm1
    1bbb:	7a 02                	jp     1bbf <floor.part.0+0x3f>
    1bbd:	74 37                	je     1bf6 <floor.part.0+0x76>
    1bbf:	66 0f ef c0          	pxor   %xmm0,%xmm0
    1bc3:	66 0f 2e c8          	ucomisd %xmm0,%xmm1
    1bc7:	7a 06                	jp     1bcf <floor.part.0+0x4f>
    1bc9:	66 0f 28 c1          	movapd %xmm1,%xmm0
    1bcd:	74 21                	je     1bf0 <floor.part.0+0x70>
    1bcf:	66 0f 28 c1          	movapd %xmm1,%xmm0
    1bd3:	f2 0f 11 0c 24       	movsd  %xmm1,(%rsp)
    1bd8:	e8 13 ff ff ff       	call   1af0 <trunc.part.0>
    1bdd:	f2 0f 10 0c 24       	movsd  (%rsp),%xmm1
    1be2:	66 0f 2f c1          	comisd %xmm1,%xmm0
    1be6:	76 08                	jbe    1bf0 <floor.part.0+0x70>
    1be8:	f2 0f 5c 05 c0 66 00 	subsd  0x66c0(%rip),%xmm0        # 82b0 <_IO_stdin_used+0x2b0>
    1bef:	00 
    1bf0:	48 83 c4 10          	add    $0x10,%rsp
    1bf4:	5b                   	pop    %rbx
    1bf5:	c3                   	ret
    1bf6:	66 0f 28 c1          	movapd %xmm1,%xmm0
    1bfa:	f2 0f 11 0c 24       	movsd  %xmm1,(%rsp)
    1bff:	f2 0f 11 54 24 08    	movsd  %xmm2,0x8(%rsp)
    1c05:	e8 f6 fc ff ff       	call   1900 <re_break_double>
    1c0a:	f2 0f 10 44 24 08    	movsd  0x8(%rsp),%xmm0
    1c10:	48 89 c3             	mov    %rax,%rbx
    1c13:	e8 e8 fc ff ff       	call   1900 <re_break_double>
    1c18:	83 e3 01             	and    $0x1,%ebx
    1c1b:	48 89 c1             	mov    %rax,%rcx
    1c1e:	48 89 d6             	mov    %rdx,%rsi
    1c21:	48 83 e1 fe          	and    $0xfffffffffffffffe,%rcx
    1c25:	48 09 d9             	or     %rbx,%rcx
    1c28:	48 89 cf             	mov    %rcx,%rdi
    1c2b:	e8 80 fd ff ff       	call   19b0 <re_make_double>
    1c30:	f2 0f 10 0c 24       	movsd  (%rsp),%xmm1
    1c35:	eb ab                	jmp    1be2 <floor.part.0+0x62>
    1c37:	66 0f ef c0          	pxor   %xmm0,%xmm0
    1c3b:	f2 0f 5e c0          	divsd  %xmm0,%xmm0
    1c3f:	c3                   	ret

0000000000001c40 <_re_atan>:
    1c40:	66 0f ef c9          	pxor   %xmm1,%xmm1
    1c44:	66 0f 2e c1          	ucomisd %xmm1,%xmm0
    1c48:	7a 06                	jp     1c50 <_re_atan+0x10>
    1c4a:	0f 84 aa 00 00 00    	je     1cfa <_re_atan+0xba>
    1c50:	48 83 ec 08          	sub    $0x8,%rsp
    1c54:	f2 0f 10 2d 54 66 00 	movsd  0x6654(%rip),%xmm5        # 82b0 <_IO_stdin_used+0x2b0>
    1c5b:	00 
    1c5c:	66 0f 2f c5          	comisd %xmm5,%xmm0
    1c60:	0f 87 9d 00 00 00    	ja     1d03 <_re_atan+0xc3>
    1c66:	f2 0f 10 0d f2 66 00 	movsd  0x66f2(%rip),%xmm1        # 8360 <_IO_stdin_used+0x360>
    1c6d:	00 
    1c6e:	66 0f 2f c8          	comisd %xmm0,%xmm1
    1c72:	0f 87 a6 00 00 00    	ja     1d1e <_re_atan+0xde>
    1c78:	66 0f 28 f8          	movapd %xmm0,%xmm7
    1c7c:	66 0f ef c9          	pxor   %xmm1,%xmm1
    1c80:	b8 20 00 00 00       	mov    $0x20,%eax
    1c85:	f2 0f 59 f8          	mulsd  %xmm0,%xmm7
    1c89:	66 0f 28 e5          	movapd %xmm5,%xmm4
    1c8d:	66 0f 28 f1          	movapd %xmm1,%xmm6
    1c91:	66 66 2e 0f 1f 84 00 	data16 cs nopw 0x0(%rax,%rax,1)
    1c98:	00 00 00 00 
    1c9c:	66 66 2e 0f 1f 84 00 	data16 cs nopw 0x0(%rax,%rax,1)
    1ca3:	00 00 00 00 
    1ca7:	66 66 2e 0f 1f 84 00 	data16 cs nopw 0x0(%rax,%rax,1)
    1cae:	00 00 00 00 
    1cb2:	66 66 2e 0f 1f 84 00 	data16 cs nopw 0x0(%rax,%rax,1)
    1cb9:	00 00 00 00 
    1cbd:	0f 1f 00             	nopl   (%rax)
    1cc0:	66 0f 28 d9          	movapd %xmm1,%xmm3
    1cc4:	66 0f 28 d0          	movapd %xmm0,%xmm2
    1cc8:	f2 0f 58 d9          	addsd  %xmm1,%xmm3
    1ccc:	f2 0f 59 c7          	mulsd  %xmm7,%xmm0
    1cd0:	f2 0f 58 cd          	addsd  %xmm5,%xmm1
    1cd4:	f2 0f 58 dd          	addsd  %xmm5,%xmm3
    1cd8:	f2 0f 5e d3          	divsd  %xmm3,%xmm2
    1cdc:	f2 0f 59 d4          	mulsd  %xmm4,%xmm2
    1ce0:	66 0f 57 25 08 67 00 	xorpd  0x6708(%rip),%xmm4        # 83f0 <_IO_stdin_used+0x3f0>
    1ce7:	00 
    1ce8:	f2 0f 58 f2          	addsd  %xmm2,%xmm6
    1cec:	83 e8 01             	sub    $0x1,%eax
    1cef:	75 cf                	jne    1cc0 <_re_atan+0x80>
    1cf1:	66 0f 28 c6          	movapd %xmm6,%xmm0
    1cf5:	48 83 c4 08          	add    $0x8,%rsp
    1cf9:	c3                   	ret
    1cfa:	66 0f ef f6          	pxor   %xmm6,%xmm6
    1cfe:	66 0f 28 c6          	movapd %xmm6,%xmm0
    1d02:	c3                   	ret
    1d03:	f2 0f 5e e8          	divsd  %xmm0,%xmm5
    1d07:	66 0f 28 c5          	movapd %xmm5,%xmm0
    1d0b:	e8 30 ff ff ff       	call   1c40 <_re_atan>
    1d10:	f2 0f 10 35 f8 65 00 	movsd  0x65f8(%rip),%xmm6        # 8310 <_IO_stdin_used+0x310>
    1d17:	00 
    1d18:	f2 0f 5c f0          	subsd  %xmm0,%xmm6
    1d1c:	eb d3                	jmp    1cf1 <_re_atan+0xb1>
    1d1e:	f2 0f 5e e8          	divsd  %xmm0,%xmm5
    1d22:	66 0f 28 c5          	movapd %xmm5,%xmm0
    1d26:	e8 15 ff ff ff       	call   1c40 <_re_atan>
    1d2b:	f2 0f 10 35 35 66 00 	movsd  0x6635(%rip),%xmm6        # 8368 <_IO_stdin_used+0x368>
    1d32:	00 
    1d33:	f2 0f 5c f0          	subsd  %xmm0,%xmm6
    1d37:	eb b8                	jmp    1cf1 <_re_atan+0xb1>
    1d39:	0f 1f 80 00 00 00 00 	nopl   0x0(%rax)

0000000000001d40 <_re_cordic_circular>:
    1d40:	41 57                	push   %r15
    1d42:	49 bf 00 00 00 00 00 	movabs $0x7ff0000000000000,%r15
    1d49:	00 f0 7f 
    1d4c:	41 56                	push   %r14
    1d4e:	41 55                	push   %r13
    1d50:	45 31 ed             	xor    %r13d,%r13d
    1d53:	41 54                	push   %r12
    1d55:	55                   	push   %rbp
    1d56:	53                   	push   %rbx
    1d57:	48 83 ec 58          	sub    $0x58,%rsp
    1d5b:	48 89 7c 24 20       	mov    %rdi,0x20(%rsp)
    1d60:	48 8d 6c 24 40       	lea    0x40(%rsp),%rbp
    1d65:	48 89 74 24 28       	mov    %rsi,0x28(%rsp)
    1d6a:	64 4c 8b 34 25 28 00 	mov    %fs:0x28,%r14
    1d71:	00 00 
    1d73:	4c 89 74 24 48       	mov    %r14,0x48(%rsp)
    1d78:	4c 8d 35 01 67 00 00 	lea    0x6701(%rip),%r14        # 8480 <_cordic_atan_table>
    1d7f:	48 c7 44 24 08 00 00 	movq   $0x0,0x8(%rsp)
    1d86:	00 00 
    1d88:	0f 1f 84 00 00 00 00 	nopl   0x0(%rax,%rax,1)
    1d8f:	00 
    1d90:	ba 08 00 00 00       	mov    $0x8,%edx
    1d95:	48 8d 74 24 38       	lea    0x38(%rsp),%rsi
    1d9a:	48 89 ef             	mov    %rbp,%rdi
    1d9d:	f2 0f 11 44 24 18    	movsd  %xmm0,0x18(%rsp)
    1da3:	f2 0f 11 4c 24 38    	movsd  %xmm1,0x38(%rsp)
    1da9:	49 83 c6 10          	add    $0x10,%r14
    1dad:	f2 0f 11 4c 24 10    	movsd  %xmm1,0x10(%rsp)
    1db3:	e8 f8 33 00 00       	call   51b0 <memmove>
    1db8:	48 8b 05 f1 64 00 00 	mov    0x64f1(%rip),%rax        # 82b0 <_IO_stdin_used+0x2b0>
    1dbf:	ba 08 00 00 00       	mov    $0x8,%edx
    1dc4:	48 89 ef             	mov    %rbp,%rdi
    1dc7:	48 8d 74 24 38       	lea    0x38(%rsp),%rsi
    1dcc:	48 8b 5c 24 40       	mov    0x40(%rsp),%rbx
    1dd1:	48 89 44 24 38       	mov    %rax,0x38(%rsp)
    1dd6:	e8 d5 33 00 00       	call   51b0 <memmove>
    1ddb:	48 8b 54 24 40       	mov    0x40(%rsp),%rdx
    1de0:	48 89 ef             	mov    %rbp,%rdi
    1de3:	48 b9 00 00 00 00 00 	movabs $0x8000000000000000,%rcx
    1dea:	00 00 80 
    1ded:	48 be ff ff ff ff ff 	movabs $0xfffffffffffff,%rsi
    1df4:	ff 0f 00 
    1df7:	48 21 cb             	and    %rcx,%rbx
    1dfa:	48 89 d0             	mov    %rdx,%rax
    1dfd:	48 21 f2             	and    %rsi,%rdx
    1e00:	48 8d 74 24 38       	lea    0x38(%rsp),%rsi
    1e05:	48 c1 e8 34          	shr    $0x34,%rax
    1e09:	48 09 d3             	or     %rdx,%rbx
    1e0c:	ba 08 00 00 00       	mov    $0x8,%edx
    1e11:	c1 e0 05             	shl    $0x5,%eax
    1e14:	66 2d e0 7f          	sub    $0x7fe0,%ax
    1e18:	66 c1 f8 05          	sar    $0x5,%ax
    1e1c:	98                   	cwtl
    1e1d:	05 ff 03 00 00       	add    $0x3ff,%eax
    1e22:	48 c1 e0 34          	shl    $0x34,%rax
    1e26:	4c 21 f8             	and    %r15,%rax
    1e29:	48 09 c3             	or     %rax,%rbx
    1e2c:	48 89 5c 24 38       	mov    %rbx,0x38(%rsp)
    1e31:	e8 7a 33 00 00       	call   51b0 <memmove>
    1e36:	44 89 e9             	mov    %r13d,%ecx
    1e39:	b8 01 00 00 00       	mov    $0x1,%eax
    1e3e:	f2 0f 10 2d 6a 64 00 	movsd  0x646a(%rip),%xmm5        # 82b0 <_IO_stdin_used+0x2b0>
    1e45:	00 
    1e46:	d3 e0                	shl    %cl,%eax
    1e48:	66 0f ef d2          	pxor   %xmm2,%xmm2
    1e4c:	f2 0f 10 44 24 18    	movsd  0x18(%rsp),%xmm0
    1e52:	41 83 c5 01          	add    $0x1,%r13d
    1e56:	f2 0f 2a d0          	cvtsi2sd %eax,%xmm2
    1e5a:	f2 0f 5e ea          	divsd  %xmm2,%xmm5
    1e5e:	f2 0f 10 5c 24 40    	movsd  0x40(%rsp),%xmm3
    1e64:	f2 0f 10 4c 24 10    	movsd  0x10(%rsp),%xmm1
    1e6a:	41 db 6e f0          	fldt   -0x10(%r14)
    1e6e:	66 0f 28 d0          	movapd %xmm0,%xmm2
    1e72:	66 0f 28 e3          	movapd %xmm3,%xmm4
    1e76:	f2 0f 59 d3          	mulsd  %xmm3,%xmm2
    1e7a:	f2 0f 59 e1          	mulsd  %xmm1,%xmm4
    1e7e:	dd 5c 24 10          	fstpl  0x10(%rsp)
    1e82:	f2 0f 59 d5          	mulsd  %xmm5,%xmm2
    1e86:	f2 0f 59 e5          	mulsd  %xmm5,%xmm4
    1e8a:	f2 0f 5c ca          	subsd  %xmm2,%xmm1
    1e8e:	f2 0f 10 54 24 10    	movsd  0x10(%rsp),%xmm2
    1e94:	f2 0f 58 c4          	addsd  %xmm4,%xmm0
    1e98:	f2 0f 59 d3          	mulsd  %xmm3,%xmm2
    1e9c:	f2 0f 58 54 24 08    	addsd  0x8(%rsp),%xmm2
    1ea2:	f2 0f 11 54 24 08    	movsd  %xmm2,0x8(%rsp)
    1ea8:	41 83 fd 20          	cmp    $0x20,%r13d
    1eac:	0f 85 de fe ff ff    	jne    1d90 <_re_cordic_circular+0x50>
    1eb2:	f2 0f 59 05 b6 64 00 	mulsd  0x64b6(%rip),%xmm0        # 8370 <_IO_stdin_used+0x370>
    1eb9:	00 
    1eba:	48 8b 44 24 20       	mov    0x20(%rsp),%rax
    1ebf:	f2 0f 11 00          	movsd  %xmm0,(%rax)
    1ec3:	48 8b 44 24 28       	mov    0x28(%rsp),%rax
    1ec8:	48 85 c0             	test   %rax,%rax
    1ecb:	74 04                	je     1ed1 <_re_cordic_circular+0x191>
    1ecd:	f2 0f 11 10          	movsd  %xmm2,(%rax)
    1ed1:	48 8b 44 24 48       	mov    0x48(%rsp),%rax
    1ed6:	64 48 2b 04 25 28 00 	sub    %fs:0x28,%rax
    1edd:	00 00 
    1edf:	75 0f                	jne    1ef0 <_re_cordic_circular+0x1b0>
    1ee1:	48 83 c4 58          	add    $0x58,%rsp
    1ee5:	5b                   	pop    %rbx
    1ee6:	5d                   	pop    %rbp
    1ee7:	41 5c                	pop    %r12
    1ee9:	41 5d                	pop    %r13
    1eeb:	41 5e                	pop    %r14
    1eed:	41 5f                	pop    %r15
    1eef:	c3                   	ret
    1ef0:	e8 4b f1 ff ff       	call   1040 <__stack_chk_fail@plt>
    1ef5:	66 66 2e 0f 1f 84 00 	data16 cs nopw 0x0(%rax,%rax,1)
    1efc:	00 00 00 00 

0000000000001f00 <_re_cordic_circularf>:
    1f00:	41 57                	push   %r15
    1f02:	41 56                	push   %r14
    1f04:	45 31 f6             	xor    %r14d,%r14d
    1f07:	41 55                	push   %r13
    1f09:	41 54                	push   %r12
    1f0b:	55                   	push   %rbp
    1f0c:	53                   	push   %rbx
    1f0d:	48 83 ec 38          	sub    $0x38,%rsp
    1f11:	48 89 7c 24 10       	mov    %rdi,0x10(%rsp)
    1f16:	48 8d 6c 24 20       	lea    0x20(%rsp),%rbp
    1f1b:	48 89 74 24 18       	mov    %rsi,0x18(%rsp)
    1f20:	64 4c 8b 2c 25 28 00 	mov    %fs:0x28,%r13
    1f27:	00 00 
    1f29:	4c 89 6c 24 28       	mov    %r13,0x28(%rsp)
    1f2e:	4c 8d 2d 4b 65 00 00 	lea    0x654b(%rip),%r13        # 8480 <_cordic_atan_table>
    1f35:	c7 44 24 04 00 00 00 	movl   $0x0,0x4(%rsp)
    1f3c:	00 
    1f3d:	0f 1f 00             	nopl   (%rax)
    1f40:	ba 04 00 00 00       	mov    $0x4,%edx
    1f45:	48 89 ee             	mov    %rbp,%rsi
    1f48:	49 83 c5 10          	add    $0x10,%r13
    1f4c:	f3 0f 11 44 24 0c    	movss  %xmm0,0xc(%rsp)
    1f52:	48 8d 7c 24 24       	lea    0x24(%rsp),%rdi
    1f57:	f3 0f 11 4c 24 20    	movss  %xmm1,0x20(%rsp)
    1f5d:	f3 0f 11 4c 24 08    	movss  %xmm1,0x8(%rsp)
    1f63:	e8 48 32 00 00       	call   51b0 <memmove>
    1f68:	ba 04 00 00 00       	mov    $0x4,%edx
    1f6d:	48 89 ee             	mov    %rbp,%rsi
    1f70:	48 8d 7c 24 24       	lea    0x24(%rsp),%rdi
    1f75:	44 8b 7c 24 24       	mov    0x24(%rsp),%r15d
    1f7a:	c7 44 24 20 00 00 80 	movl   $0x3f800000,0x20(%rsp)
    1f81:	3f 
    1f82:	e8 29 32 00 00       	call   51b0 <memmove>
    1f87:	8b 54 24 24          	mov    0x24(%rsp),%edx
    1f8b:	48 89 ee             	mov    %rbp,%rsi
    1f8e:	48 8d 7c 24 24       	lea    0x24(%rsp),%rdi
    1f93:	41 81 e7 00 00 00 80 	and    $0x80000000,%r15d
    1f9a:	89 d0                	mov    %edx,%eax
    1f9c:	81 e2 ff ff 7f 00    	and    $0x7fffff,%edx
    1fa2:	c1 e8 17             	shr    $0x17,%eax
    1fa5:	41 09 d7             	or     %edx,%r15d
    1fa8:	ba 04 00 00 00       	mov    $0x4,%edx
    1fad:	83 e8 7f             	sub    $0x7f,%eax
    1fb0:	0f be c0             	movsbl %al,%eax
    1fb3:	83 c0 7f             	add    $0x7f,%eax
    1fb6:	c1 e0 17             	shl    $0x17,%eax
    1fb9:	25 00 00 80 7f       	and    $0x7f800000,%eax
    1fbe:	44 09 f8             	or     %r15d,%eax
    1fc1:	89 44 24 20          	mov    %eax,0x20(%rsp)
    1fc5:	e8 e6 31 00 00       	call   51b0 <memmove>
    1fca:	44 89 f1             	mov    %r14d,%ecx
    1fcd:	b8 01 00 00 00       	mov    $0x1,%eax
    1fd2:	66 0f ef d2          	pxor   %xmm2,%xmm2
    1fd6:	d3 e0                	shl    %cl,%eax
    1fd8:	f3 0f 10 44 24 0c    	movss  0xc(%rsp),%xmm0
    1fde:	41 83 c6 01          	add    $0x1,%r14d
    1fe2:	f3 0f 10 2d 1e 60 00 	movss  0x601e(%rip),%xmm5        # 8008 <_IO_stdin_used+0x8>
    1fe9:	00 
    1fea:	f3 0f 2a d0          	cvtsi2ss %eax,%xmm2
    1fee:	f3 0f 10 5c 24 24    	movss  0x24(%rsp),%xmm3
    1ff4:	f3 0f 10 4c 24 08    	movss  0x8(%rsp),%xmm1
    1ffa:	41 db 6d f0          	fldt   -0x10(%r13)
    1ffe:	0f 28 e3             	movaps %xmm3,%xmm4
    2001:	f3 0f 59 e1          	mulss  %xmm1,%xmm4
    2005:	f3 0f 5e ea          	divss  %xmm2,%xmm5
    2009:	0f 28 d0             	movaps %xmm0,%xmm2
    200c:	d9 5c 24 08          	fstps  0x8(%rsp)
    2010:	f3 0f 59 d3          	mulss  %xmm3,%xmm2
    2014:	f3 0f 59 d5          	mulss  %xmm5,%xmm2
    2018:	f3 0f 59 e5          	mulss  %xmm5,%xmm4
    201c:	f3 0f 5c ca          	subss  %xmm2,%xmm1
    2020:	f3 0f 10 54 24 08    	movss  0x8(%rsp),%xmm2
    2026:	f3 0f 58 c4          	addss  %xmm4,%xmm0
    202a:	f3 0f 59 d3          	mulss  %xmm3,%xmm2
    202e:	f3 0f 58 54 24 04    	addss  0x4(%rsp),%xmm2
    2034:	f3 0f 11 54 24 04    	movss  %xmm2,0x4(%rsp)
    203a:	41 83 fe 20          	cmp    $0x20,%r14d
    203e:	0f 85 fc fe ff ff    	jne    1f40 <_re_cordic_circularf+0x40>
    2044:	f3 0f 59 05 c0 5f 00 	mulss  0x5fc0(%rip),%xmm0        # 800c <_IO_stdin_used+0xc>
    204b:	00 
    204c:	48 8b 44 24 10       	mov    0x10(%rsp),%rax
    2051:	f3 0f 11 00          	movss  %xmm0,(%rax)
    2055:	48 8b 44 24 18       	mov    0x18(%rsp),%rax
    205a:	48 85 c0             	test   %rax,%rax
    205d:	74 04                	je     2063 <_re_cordic_circularf+0x163>
    205f:	f3 0f 11 10          	movss  %xmm2,(%rax)
    2063:	48 8b 44 24 28       	mov    0x28(%rsp),%rax
    2068:	64 48 2b 04 25 28 00 	sub    %fs:0x28,%rax
    206f:	00 00 
    2071:	75 0f                	jne    2082 <_re_cordic_circularf+0x182>
    2073:	48 83 c4 38          	add    $0x38,%rsp
    2077:	5b                   	pop    %rbx
    2078:	5d                   	pop    %rbp
    2079:	41 5c                	pop    %r12
    207b:	41 5d                	pop    %r13
    207d:	41 5e                	pop    %r14
    207f:	41 5f                	pop    %r15
    2081:	c3                   	ret
    2082:	e8 b9 ef ff ff       	call   1040 <__stack_chk_fail@plt>
    2087:	66 0f 1f 84 00 00 00 	nopw   0x0(%rax,%rax,1)
    208e:	00 00 

0000000000002090 <_re_cordic_circularl>:
    2090:	41 57                	push   %r15
    2092:	41 56                	push   %r14
    2094:	45 31 f6             	xor    %r14d,%r14d
    2097:	41 55                	push   %r13
    2099:	41 54                	push   %r12
    209b:	55                   	push   %rbp
    209c:	53                   	push   %rbx
    209d:	48 83 ec 68          	sub    $0x68,%rsp
    20a1:	48 89 7c 24 20       	mov    %rdi,0x20(%rsp)
    20a6:	d9 ee                	fldz
    20a8:	db ac 24 a0 00 00 00 	fldt   0xa0(%rsp)
    20af:	48 8d 6c 24 30       	lea    0x30(%rsp),%rbp
    20b4:	48 89 74 24 28       	mov    %rsi,0x28(%rsp)
    20b9:	64 4c 8b 2c 25 28 00 	mov    %fs:0x28,%r13
    20c0:	00 00 
    20c2:	4c 89 6c 24 58       	mov    %r13,0x58(%rsp)
    20c7:	4c 8d 2d b2 63 00 00 	lea    0x63b2(%rip),%r13        # 8480 <_cordic_atan_table>
    20ce:	66 90                	xchg   %ax,%ax
    20d0:	db bc 24 a0 00 00 00 	fstpt  0xa0(%rsp)
    20d7:	ba 10 00 00 00       	mov    $0x10,%edx
    20dc:	48 89 ee             	mov    %rbp,%rsi
    20df:	49 83 c5 10          	add    $0x10,%r13
    20e3:	48 8d 7c 24 40       	lea    0x40(%rsp),%rdi
    20e8:	db 7c 24 10          	fstpt  0x10(%rsp)
    20ec:	d9 e8                	fld1
    20ee:	db 7c 24 30          	fstpt  0x30(%rsp)
    20f2:	e8 b9 30 00 00       	call   51b0 <memmove>
    20f7:	db ac 24 b0 00 00 00 	fldt   0xb0(%rsp)
    20fe:	ba 10 00 00 00       	mov    $0x10,%edx
    2103:	48 89 ee             	mov    %rbp,%rsi
    2106:	48 8d 7c 24 40       	lea    0x40(%rsp),%rdi
    210b:	44 0f b7 7c 24 48    	movzwl 0x48(%rsp),%r15d
    2111:	4c 8b 64 24 40       	mov    0x40(%rsp),%r12
    2116:	db 7c 24 30          	fstpt  0x30(%rsp)
    211a:	66 41 81 e7 ff 7f    	and    $0x7fff,%r15w
    2120:	e8 8b 30 00 00       	call   51b0 <memmove>
    2125:	31 c0                	xor    %eax,%eax
    2127:	ba 10 00 00 00       	mov    $0x10,%edx
    212c:	48 89 ee             	mov    %rbp,%rsi
    212f:	66 89 44 24 3e       	mov    %ax,0x3e(%rsp)
    2134:	0f b7 44 24 48       	movzwl 0x48(%rsp),%eax
    2139:	48 8d 7c 24 40       	lea    0x40(%rsp),%rdi
    213e:	c7 44 24 3a 00 00 00 	movl   $0x0,0x3a(%rsp)
    2145:	00 
    2146:	66 25 00 80          	and    $0x8000,%ax
    214a:	4c 89 64 24 30       	mov    %r12,0x30(%rsp)
    214f:	44 09 f8             	or     %r15d,%eax
    2152:	66 89 44 24 38       	mov    %ax,0x38(%rsp)
    2157:	e8 54 30 00 00       	call   51b0 <memmove>
    215c:	44 89 f1             	mov    %r14d,%ecx
    215f:	b8 01 00 00 00       	mov    $0x1,%eax
    2164:	41 83 c6 01          	add    $0x1,%r14d
    2168:	db 6c 24 40          	fldt   0x40(%rsp)
    216c:	d3 e0                	shl    %cl,%eax
    216e:	89 44 24 0c          	mov    %eax,0xc(%rsp)
    2172:	db 44 24 0c          	fildl  0xc(%rsp)
    2176:	d9 e8                	fld1
    2178:	de f1                	fdivp  %st,%st(1)
    217a:	db ac 24 a0 00 00 00 	fldt   0xa0(%rsp)
    2181:	d9 c0                	fld    %st(0)
    2183:	db ac 24 b0 00 00 00 	fldt   0xb0(%rsp)
    218a:	d8 cc                	fmul   %st(4),%st
    218c:	d8 cb                	fmul   %st(3),%st
    218e:	de c2                	faddp  %st,%st(2)
    2190:	d8 cb                	fmul   %st(3),%st
    2192:	de ca                	fmulp  %st,%st(2)
    2194:	db ac 24 b0 00 00 00 	fldt   0xb0(%rsp)
    219b:	de e2                	fsubp  %st,%st(2)
    219d:	d9 c9                	fxch   %st(1)
    219f:	db bc 24 b0 00 00 00 	fstpt  0xb0(%rsp)
    21a6:	41 db 6d f0          	fldt   -0x10(%r13)
    21aa:	de ca                	fmulp  %st,%st(2)
    21ac:	db 6c 24 10          	fldt   0x10(%rsp)
    21b0:	de c2                	faddp  %st,%st(2)
    21b2:	41 83 fe 20          	cmp    $0x20,%r14d
    21b6:	0f 85 14 ff ff ff    	jne    20d0 <_re_cordic_circularl+0x40>
    21bc:	db 2d 3e 62 00 00    	fldt   0x623e(%rip)        # 8400 <_IO_stdin_used+0x400>
    21c2:	48 8b 44 24 20       	mov    0x20(%rsp),%rax
    21c7:	de c9                	fmulp  %st,%st(1)
    21c9:	db 38                	fstpt  (%rax)
    21cb:	48 8b 44 24 28       	mov    0x28(%rsp),%rax
    21d0:	48 85 c0             	test   %rax,%rax
    21d3:	74 04                	je     21d9 <_re_cordic_circularl+0x149>
    21d5:	db 38                	fstpt  (%rax)
    21d7:	eb 02                	jmp    21db <_re_cordic_circularl+0x14b>
    21d9:	dd d8                	fstp   %st(0)
    21db:	48 8b 44 24 58       	mov    0x58(%rsp),%rax
    21e0:	64 48 2b 04 25 28 00 	sub    %fs:0x28,%rax
    21e7:	00 00 
    21e9:	75 0f                	jne    21fa <_re_cordic_circularl+0x16a>
    21eb:	48 83 c4 68          	add    $0x68,%rsp
    21ef:	5b                   	pop    %rbx
    21f0:	5d                   	pop    %rbp
    21f1:	41 5c                	pop    %r12
    21f3:	41 5d                	pop    %r13
    21f5:	41 5e                	pop    %r14
    21f7:	41 5f                	pop    %r15
    21f9:	c3                   	ret
    21fa:	e8 41 ee ff ff       	call   1040 <__stack_chk_fail@plt>
    21ff:	90                   	nop

0000000000002200 <_re_mask_fp_excepts>:
    2200:	48 83 ec 28          	sub    $0x28,%rsp
    2204:	64 4c 8b 0c 25 28 00 	mov    %fs:0x28,%r9
    220b:	00 00 
    220d:	4c 89 4c 24 18       	mov    %r9,0x18(%rsp)
    2212:	41 89 f1             	mov    %esi,%r9d
    2215:	d9 3c 24             	fnstcw (%rsp)
    2218:	0f ae 5c 24 10       	stmxcsr 0x10(%rsp)
    221d:	89 f8                	mov    %edi,%eax
    221f:	8b 74 24 10          	mov    0x10(%rsp),%esi
    2223:	0f b7 14 24          	movzwl (%rsp),%edx
    2227:	c1 e0 07             	shl    $0x7,%eax
    222a:	89 c1                	mov    %eax,%ecx
    222c:	09 fa                	or     %edi,%edx
    222e:	09 f1                	or     %esi,%ecx
    2230:	41 83 f9 01          	cmp    $0x1,%r9d
    2234:	75 0e                	jne    2244 <_re_mask_fp_excepts+0x44>
    2236:	f7 d0                	not    %eax
    2238:	f7 d7                	not    %edi
    223a:	66 23 3c 24          	and    (%rsp),%di
    223e:	21 f0                	and    %esi,%eax
    2240:	89 fa                	mov    %edi,%edx
    2242:	89 c1                	mov    %eax,%ecx
    2244:	89 4c 24 10          	mov    %ecx,0x10(%rsp)
    2248:	66 89 14 24          	mov    %dx,(%rsp)
    224c:	d9 2c 24             	fldcw  (%rsp)
    224f:	0f ae 54 24 10       	ldmxcsr 0x10(%rsp)
    2254:	48 8b 44 24 18       	mov    0x18(%rsp),%rax
    2259:	64 48 2b 04 25 28 00 	sub    %fs:0x28,%rax
    2260:	00 00 
    2262:	75 07                	jne    226b <_re_mask_fp_excepts+0x6b>
    2264:	31 c0                	xor    %eax,%eax
    2266:	48 83 c4 28          	add    $0x28,%rsp
    226a:	c3                   	ret
    226b:	e8 d0 ed ff ff       	call   1040 <__stack_chk_fail@plt>

0000000000002270 <feraiseexcept>:
    2270:	8b 05 b6 8d 00 00    	mov    0x8db6(%rip),%eax        # b02c <_re_fe_curr_env+0x4>
    2276:	09 3d ac 8d 00 00    	or     %edi,0x8dac(%rip)        # b028 <_re_fe_curr_env>
    227c:	f7 d0                	not    %eax
    227e:	85 f8                	test   %edi,%eax
    2280:	0f 84 16 01 00 00    	je     239c <feraiseexcept+0x12c>
    2286:	40 f6 c7 08          	test   $0x8,%dil
    228a:	74 2e                	je     22ba <feraiseexcept+0x4a>
    228c:	48 c7 44 24 e8 00 00 	movq   $0x0,-0x18(%rsp)
    2293:	00 00 
    2295:	48 c7 44 24 f0 00 00 	movq   $0x0,-0x10(%rsp)
    229c:	00 00 
    229e:	f2 0f 10 44 24 e8    	movsd  -0x18(%rsp),%xmm0
    22a4:	f2 0f 10 4c 24 f0    	movsd  -0x10(%rsp),%xmm1
    22aa:	f2 0f 5e c1          	divsd  %xmm1,%xmm0
    22ae:	f2 0f 11 44 24 f8    	movsd  %xmm0,-0x8(%rsp)
    22b4:	f2 0f 10 44 24 f8    	movsd  -0x8(%rsp),%xmm0
    22ba:	40 f6 c7 01          	test   $0x1,%dil
    22be:	74 33                	je     22f3 <feraiseexcept+0x83>
    22c0:	f2 0f 10 05 e8 5f 00 	movsd  0x5fe8(%rip),%xmm0        # 82b0 <_IO_stdin_used+0x2b0>
    22c7:	00 
    22c8:	f2 0f 11 44 24 e8    	movsd  %xmm0,-0x18(%rsp)
    22ce:	48 c7 44 24 f0 00 00 	movq   $0x0,-0x10(%rsp)
    22d5:	00 00 
    22d7:	f2 0f 10 44 24 e8    	movsd  -0x18(%rsp),%xmm0
    22dd:	f2 0f 10 4c 24 f0    	movsd  -0x10(%rsp),%xmm1
    22e3:	f2 0f 5e c1          	divsd  %xmm1,%xmm0
    22e7:	f2 0f 11 44 24 f8    	movsd  %xmm0,-0x8(%rsp)
    22ed:	f2 0f 10 44 24 f8    	movsd  -0x8(%rsp),%xmm0
    22f3:	40 f6 c7 10          	test   $0x10,%dil
    22f7:	74 30                	je     2329 <feraiseexcept+0xb9>
    22f9:	f2 0f 10 05 77 60 00 	movsd  0x6077(%rip),%xmm0        # 8378 <_IO_stdin_used+0x378>
    2300:	00 
    2301:	f2 0f 11 44 24 e8    	movsd  %xmm0,-0x18(%rsp)
    2307:	f2 0f 11 44 24 f0    	movsd  %xmm0,-0x10(%rsp)
    230d:	f2 0f 10 44 24 e8    	movsd  -0x18(%rsp),%xmm0
    2313:	f2 0f 10 4c 24 f0    	movsd  -0x10(%rsp),%xmm1
    2319:	f2 0f 59 c1          	mulsd  %xmm1,%xmm0
    231d:	f2 0f 11 44 24 f8    	movsd  %xmm0,-0x8(%rsp)
    2323:	f2 0f 10 44 24 f8    	movsd  -0x8(%rsp),%xmm0
    2329:	40 f6 c7 20          	test   $0x20,%dil
    232d:	74 30                	je     235f <feraiseexcept+0xef>
    232f:	f2 0f 10 05 49 60 00 	movsd  0x6049(%rip),%xmm0        # 8380 <_IO_stdin_used+0x380>
    2336:	00 
    2337:	f2 0f 11 44 24 e8    	movsd  %xmm0,-0x18(%rsp)
    233d:	f2 0f 11 44 24 f0    	movsd  %xmm0,-0x10(%rsp)
    2343:	f2 0f 10 44 24 e8    	movsd  -0x18(%rsp),%xmm0
    2349:	f2 0f 10 4c 24 f0    	movsd  -0x10(%rsp),%xmm1
    234f:	f2 0f 59 c1          	mulsd  %xmm1,%xmm0
    2353:	f2 0f 11 44 24 f8    	movsd  %xmm0,-0x8(%rsp)
    2359:	f2 0f 10 44 24 f8    	movsd  -0x8(%rsp),%xmm0
    235f:	83 e7 04             	and    $0x4,%edi
    2362:	74 38                	je     239c <feraiseexcept+0x12c>
    2364:	f2 0f 10 05 44 5f 00 	movsd  0x5f44(%rip),%xmm0        # 82b0 <_IO_stdin_used+0x2b0>
    236b:	00 
    236c:	f2 0f 11 44 24 e8    	movsd  %xmm0,-0x18(%rsp)
    2372:	f2 0f 10 05 4e 5f 00 	movsd  0x5f4e(%rip),%xmm0        # 82c8 <_IO_stdin_used+0x2c8>
    2379:	00 
    237a:	f2 0f 11 44 24 f0    	movsd  %xmm0,-0x10(%rsp)
    2380:	f2 0f 10 44 24 e8    	movsd  -0x18(%rsp),%xmm0
    2386:	f2 0f 10 4c 24 f0    	movsd  -0x10(%rsp),%xmm1
    238c:	f2 0f 5e c1          	divsd  %xmm1,%xmm0
    2390:	f2 0f 11 44 24 f8    	movsd  %xmm0,-0x8(%rsp)
    2396:	f2 0f 10 44 24 f8    	movsd  -0x8(%rsp),%xmm0
    239c:	31 c0                	xor    %eax,%eax
    239e:	c3                   	ret
    239f:	90                   	nop

00000000000023a0 <fmod>:
    23a0:	48 83 ec 48          	sub    $0x48,%rsp
    23a4:	64 48 8b 04 25 28 00 	mov    %fs:0x28,%rax
    23ab:	00 00 
    23ad:	48 89 44 24 38       	mov    %rax,0x38(%rsp)
    23b2:	31 c0                	xor    %eax,%eax
    23b4:	66 0f 2e c0          	ucomisd %xmm0,%xmm0
    23b8:	0f 8a 6e 01 00 00    	jp     252c <fmod+0x18c>
    23be:	66 0f 2e c9          	ucomisd %xmm1,%xmm1
    23c2:	0f 8a 88 01 00 00    	jp     2550 <fmod+0x1b0>
    23c8:	66 0f ef d2          	pxor   %xmm2,%xmm2
    23cc:	66 0f 2e ca          	ucomisd %xmm2,%xmm1
    23d0:	7a 06                	jp     23d8 <fmod+0x38>
    23d2:	0f 84 88 01 00 00    	je     2560 <fmod+0x1c0>
    23d8:	66 0f 28 d0          	movapd %xmm0,%xmm2
    23dc:	f2 0f 5e d1          	divsd  %xmm1,%xmm2
    23e0:	66 0f 2e d2          	ucomisd %xmm2,%xmm2
    23e4:	0f 8a 3a 01 00 00    	jp     2524 <fmod+0x184>
    23ea:	66 0f ef e4          	pxor   %xmm4,%xmm4
    23ee:	ba 00 00 00 00       	mov    $0x0,%edx
    23f3:	66 0f 2e d4          	ucomisd %xmm4,%xmm2
    23f7:	0f 9b c0             	setnp  %al
    23fa:	0f 45 c2             	cmovne %edx,%eax
    23fd:	84 c0                	test   %al,%al
    23ff:	0f 85 1f 01 00 00    	jne    2524 <fmod+0x184>
    2405:	f2 0f 10 1d a3 5e 00 	movsd  0x5ea3(%rip),%xmm3        # 82b0 <_IO_stdin_used+0x2b0>
    240c:	00 
    240d:	f2 0f 5e dc          	divsd  %xmm4,%xmm3
    2411:	66 0f 2e d3          	ucomisd %xmm3,%xmm2
    2415:	7a 06                	jp     241d <fmod+0x7d>
    2417:	0f 84 07 01 00 00    	je     2524 <fmod+0x184>
    241d:	66 0f 57 1d cb 5f 00 	xorpd  0x5fcb(%rip),%xmm3        # 83f0 <_IO_stdin_used+0x3f0>
    2424:	00 
    2425:	66 0f 2e d3          	ucomisd %xmm3,%xmm2
    2429:	7a 06                	jp     2431 <fmod+0x91>
    242b:	0f 84 f3 00 00 00    	je     2524 <fmod+0x184>
    2431:	4c 8d 44 24 28       	lea    0x28(%rsp),%r8
    2436:	48 8d 7c 24 30       	lea    0x30(%rsp),%rdi
    243b:	ba 08 00 00 00       	mov    $0x8,%edx
    2440:	f2 0f 11 4c 24 18    	movsd  %xmm1,0x18(%rsp)
    2446:	4c 89 c6             	mov    %r8,%rsi
    2449:	4c 89 44 24 08       	mov    %r8,0x8(%rsp)
    244e:	48 89 3c 24          	mov    %rdi,(%rsp)
    2452:	f2 0f 11 44 24 10    	movsd  %xmm0,0x10(%rsp)
    2458:	f2 0f 11 54 24 28    	movsd  %xmm2,0x28(%rsp)
    245e:	e8 4d 2d 00 00       	call   51b0 <memmove>
    2463:	48 8b 74 24 30       	mov    0x30(%rsp),%rsi
    2468:	48 8b 3c 24          	mov    (%rsp),%rdi
    246c:	4c 8b 44 24 08       	mov    0x8(%rsp),%r8
    2471:	f2 0f 10 44 24 10    	movsd  0x10(%rsp),%xmm0
    2477:	48 89 f0             	mov    %rsi,%rax
    247a:	f2 0f 10 4c 24 18    	movsd  0x18(%rsp),%xmm1
    2480:	48 c1 e8 34          	shr    $0x34,%rax
    2484:	66 25 ff 07          	and    $0x7ff,%ax
    2488:	0f 84 ba 00 00 00    	je     2548 <fmod+0x1a8>
    248e:	66 2d ff 03          	sub    $0x3ff,%ax
    2492:	49 89 f1             	mov    %rsi,%r9
    2495:	49 ba ff ff ff ff ff 	movabs $0xfffffffffffff,%r10
    249c:	ff 0f 00 
    249f:	89 c1                	mov    %eax,%ecx
    24a1:	4d 21 d1             	and    %r10,%r9
    24a4:	c1 e1 05             	shl    $0x5,%ecx
    24a7:	66 c1 f9 05          	sar    $0x5,%cx
    24ab:	0f 88 97 00 00 00    	js     2548 <fmod+0x1a8>
    24b1:	0f b7 c0             	movzwl %ax,%eax
    24b4:	8d 90 ff 03 00 00    	lea    0x3ff(%rax),%edx
    24ba:	48 c1 e2 34          	shl    $0x34,%rdx
    24be:	66 83 f9 34          	cmp    $0x34,%cx
    24c2:	7f 1f                	jg     24e3 <fmod+0x143>
    24c4:	b9 35 00 00 00       	mov    $0x35,%ecx
    24c9:	49 0f ba e9 34       	bts    $0x34,%r9
    24ce:	29 c1                	sub    %eax,%ecx
    24d0:	48 c7 c0 ff ff ff ff 	mov    $0xffffffffffffffff,%rax
    24d7:	48 d3 e0             	shl    %cl,%rax
    24da:	4c 21 c8             	and    %r9,%rax
    24dd:	4c 21 d0             	and    %r10,%rax
    24e0:	49 89 c1             	mov    %rax,%r9
    24e3:	48 b8 00 00 00 00 00 	movabs $0x8000000000000000,%rax
    24ea:	00 00 80 
    24ed:	4c 09 ca             	or     %r9,%rdx
    24f0:	f2 0f 11 4c 24 08    	movsd  %xmm1,0x8(%rsp)
    24f6:	48 21 c6             	and    %rax,%rsi
    24f9:	f2 0f 11 04 24       	movsd  %xmm0,(%rsp)
    24fe:	48 09 f2             	or     %rsi,%rdx
    2501:	4c 89 c6             	mov    %r8,%rsi
    2504:	48 89 54 24 28       	mov    %rdx,0x28(%rsp)
    2509:	ba 08 00 00 00       	mov    $0x8,%edx
    250e:	e8 9d 2c 00 00       	call   51b0 <memmove>
    2513:	f2 0f 10 54 24 30    	movsd  0x30(%rsp),%xmm2
    2519:	f2 0f 10 4c 24 08    	movsd  0x8(%rsp),%xmm1
    251f:	f2 0f 10 04 24       	movsd  (%rsp),%xmm0
    2524:	f2 0f 59 ca          	mulsd  %xmm2,%xmm1
    2528:	f2 0f 5c c1          	subsd  %xmm1,%xmm0
    252c:	48 8b 44 24 38       	mov    0x38(%rsp),%rax
    2531:	64 48 2b 04 25 28 00 	sub    %fs:0x28,%rax
    2538:	00 00 
    253a:	75 71                	jne    25ad <fmod+0x20d>
    253c:	48 83 c4 48          	add    $0x48,%rsp
    2540:	c3                   	ret
    2541:	0f 1f 80 00 00 00 00 	nopl   0x0(%rax)
    2548:	31 d2                	xor    %edx,%edx
    254a:	45 31 c9             	xor    %r9d,%r9d
    254d:	eb 94                	jmp    24e3 <fmod+0x143>
    254f:	90                   	nop
    2550:	66 0f 28 c1          	movapd %xmm1,%xmm0
    2554:	eb d6                	jmp    252c <fmod+0x18c>
    2556:	66 2e 0f 1f 84 00 00 	cs nopw 0x0(%rax,%rax,1)
    255d:	00 00 00 
    2560:	83 0d c1 8a 00 00 01 	orl    $0x1,0x8ac1(%rip)        # b028 <_re_fe_curr_env>
    2567:	f6 05 be 8a 00 00 01 	testb  $0x1,0x8abe(%rip)        # b02c <_re_fe_curr_env+0x4>
    256e:	75 30                	jne    25a0 <fmod+0x200>
    2570:	f2 0f 10 05 38 5d 00 	movsd  0x5d38(%rip),%xmm0        # 82b0 <_IO_stdin_used+0x2b0>
    2577:	00 
    2578:	f2 0f 11 44 24 20    	movsd  %xmm0,0x20(%rsp)
    257e:	f2 0f 11 54 24 28    	movsd  %xmm2,0x28(%rsp)
    2584:	f2 0f 10 44 24 20    	movsd  0x20(%rsp),%xmm0
    258a:	f2 0f 10 4c 24 28    	movsd  0x28(%rsp),%xmm1
    2590:	f2 0f 5e c1          	divsd  %xmm1,%xmm0
    2594:	f2 0f 11 44 24 30    	movsd  %xmm0,0x30(%rsp)
    259a:	f2 0f 10 44 24 30    	movsd  0x30(%rsp),%xmm0
    25a0:	f2 0f 10 05 e0 5d 00 	movsd  0x5de0(%rip),%xmm0        # 8388 <_IO_stdin_used+0x388>
    25a7:	00 
    25a8:	e9 7f ff ff ff       	jmp    252c <fmod+0x18c>
    25ad:	e8 8e ea ff ff       	call   1040 <__stack_chk_fail@plt>
    25b2:	66 66 2e 0f 1f 84 00 	data16 cs nopw 0x0(%rax,%rax,1)
    25b9:	00 00 00 00 
    25bd:	0f 1f 00             	nopl   (%rax)

00000000000025c0 <_re_cordic>:
    25c0:	41 57                	push   %r15
    25c2:	41 56                	push   %r14
    25c4:	49 89 fe             	mov    %rdi,%r14
    25c7:	41 55                	push   %r13
    25c9:	41 54                	push   %r12
    25cb:	55                   	push   %rbp
    25cc:	53                   	push   %rbx
    25cd:	48 83 ec 58          	sub    $0x58,%rsp
    25d1:	f2 0f 58 05 2f 5d 00 	addsd  0x5d2f(%rip),%xmm0        # 8308 <_IO_stdin_used+0x308>
    25d8:	00 
    25d9:	f2 0f 10 0d af 5d 00 	movsd  0x5daf(%rip),%xmm1        # 8390 <_IO_stdin_used+0x390>
    25e0:	00 
    25e1:	48 89 74 24 18       	mov    %rsi,0x18(%rsp)
    25e6:	64 48 8b 04 25 28 00 	mov    %fs:0x28,%rax
    25ed:	00 00 
    25ef:	48 89 44 24 48       	mov    %rax,0x48(%rsp)
    25f4:	31 c0                	xor    %eax,%eax
    25f6:	e8 a5 fd ff ff       	call   23a0 <fmod>
    25fb:	66 0f ef c9          	pxor   %xmm1,%xmm1
    25ff:	66 0f 2f c8          	comisd %xmm0,%xmm1
    2603:	76 08                	jbe    260d <_re_cordic+0x4d>
    2605:	f2 0f 58 05 83 5d 00 	addsd  0x5d83(%rip),%xmm0        # 8390 <_IO_stdin_used+0x390>
    260c:	00 
    260d:	f2 0f 5c 05 f3 5c 00 	subsd  0x5cf3(%rip),%xmm0        # 8308 <_IO_stdin_used+0x308>
    2614:	00 
    2615:	f2 0f 11 04 24       	movsd  %xmm0,(%rsp)
    261a:	dd 04 24             	fldl   (%rsp)
    261d:	db 2d ed 5d 00 00    	fldt   0x5ded(%rip)        # 8410 <_IO_stdin_used+0x410>
    2623:	df f1                	fcomip %st(1),%st
    2625:	0f 86 d5 01 00 00    	jbe    2800 <_re_cordic+0x240>
    262b:	dd d8                	fstp   %st(0)
    262d:	f2 0f 58 05 d3 5c 00 	addsd  0x5cd3(%rip),%xmm0        # 8308 <_IO_stdin_used+0x308>
    2634:	00 
    2635:	c6 44 24 2f 01       	movb   $0x1,0x2f(%rsp)
    263a:	4c 89 74 24 20       	mov    %r14,0x20(%rsp)
    263f:	66 0f ef e4          	pxor   %xmm4,%xmm4
    2643:	48 8d 6c 24 40       	lea    0x40(%rsp),%rbp
    2648:	45 31 f6             	xor    %r14d,%r14d
    264b:	f2 0f 10 2d 5d 5c 00 	movsd  0x5c5d(%rip),%xmm5        # 82b0 <_IO_stdin_used+0x2b0>
    2652:	00 
    2653:	4c 8d 2d 26 5e 00 00 	lea    0x5e26(%rip),%r13        # 8480 <_cordic_atan_table>
    265a:	49 bf 00 00 00 00 00 	movabs $0x7ff0000000000000,%r15
    2661:	00 f0 7f 
    2664:	66 66 2e 0f 1f 84 00 	data16 cs nopw 0x0(%rax,%rax,1)
    266b:	00 00 00 00 
    266f:	90                   	nop
    2670:	ba 08 00 00 00       	mov    $0x8,%edx
    2675:	48 8d 74 24 38       	lea    0x38(%rsp),%rsi
    267a:	48 89 ef             	mov    %rbp,%rdi
    267d:	f2 0f 11 6c 24 10    	movsd  %xmm5,0x10(%rsp)
    2683:	f2 0f 11 24 24       	movsd  %xmm4,(%rsp)
    2688:	49 83 c5 10          	add    $0x10,%r13
    268c:	f2 0f 11 44 24 38    	movsd  %xmm0,0x38(%rsp)
    2692:	f2 0f 11 44 24 08    	movsd  %xmm0,0x8(%rsp)
    2698:	e8 13 2b 00 00       	call   51b0 <memmove>
    269d:	48 8b 05 0c 5c 00 00 	mov    0x5c0c(%rip),%rax        # 82b0 <_IO_stdin_used+0x2b0>
    26a4:	ba 08 00 00 00       	mov    $0x8,%edx
    26a9:	48 89 ef             	mov    %rbp,%rdi
    26ac:	48 8d 74 24 38       	lea    0x38(%rsp),%rsi
    26b1:	48 8b 5c 24 40       	mov    0x40(%rsp),%rbx
    26b6:	48 89 44 24 38       	mov    %rax,0x38(%rsp)
    26bb:	e8 f0 2a 00 00       	call   51b0 <memmove>
    26c0:	48 8b 54 24 40       	mov    0x40(%rsp),%rdx
    26c5:	48 89 ef             	mov    %rbp,%rdi
    26c8:	48 b9 00 00 00 00 00 	movabs $0x8000000000000000,%rcx
    26cf:	00 00 80 
    26d2:	48 be ff ff ff ff ff 	movabs $0xfffffffffffff,%rsi
    26d9:	ff 0f 00 
    26dc:	48 21 cb             	and    %rcx,%rbx
    26df:	48 89 d0             	mov    %rdx,%rax
    26e2:	48 21 f2             	and    %rsi,%rdx
    26e5:	48 8d 74 24 38       	lea    0x38(%rsp),%rsi
    26ea:	48 c1 e8 34          	shr    $0x34,%rax
    26ee:	48 09 d3             	or     %rdx,%rbx
    26f1:	ba 08 00 00 00       	mov    $0x8,%edx
    26f6:	c1 e0 05             	shl    $0x5,%eax
    26f9:	66 2d e0 7f          	sub    $0x7fe0,%ax
    26fd:	66 c1 f8 05          	sar    $0x5,%ax
    2701:	98                   	cwtl
    2702:	05 ff 03 00 00       	add    $0x3ff,%eax
    2707:	48 c1 e0 34          	shl    $0x34,%rax
    270b:	4c 21 f8             	and    %r15,%rax
    270e:	48 09 d8             	or     %rbx,%rax
    2711:	48 89 44 24 38       	mov    %rax,0x38(%rsp)
    2716:	e8 95 2a 00 00       	call   51b0 <memmove>
    271b:	44 89 f1             	mov    %r14d,%ecx
    271e:	b8 01 00 00 00       	mov    $0x1,%eax
    2723:	f2 0f 10 35 85 5b 00 	movsd  0x5b85(%rip),%xmm6        # 82b0 <_IO_stdin_used+0x2b0>
    272a:	00 
    272b:	48 d3 e0             	shl    %cl,%rax
    272e:	66 0f ef c9          	pxor   %xmm1,%xmm1
    2732:	f2 0f 10 24 24       	movsd  (%rsp),%xmm4
    2737:	41 83 c6 01          	add    $0x1,%r14d
    273b:	f2 48 0f 2a c8       	cvtsi2sd %rax,%xmm1
    2740:	f2 0f 5e f1          	divsd  %xmm1,%xmm6
    2744:	f2 0f 10 6c 24 10    	movsd  0x10(%rsp),%xmm5
    274a:	f2 0f 10 54 24 40    	movsd  0x40(%rsp),%xmm2
    2750:	41 db 6d f0          	fldt   -0x10(%r13)
    2754:	f2 0f 10 44 24 08    	movsd  0x8(%rsp),%xmm0
    275a:	66 0f 28 cd          	movapd %xmm5,%xmm1
    275e:	66 0f 28 da          	movapd %xmm2,%xmm3
    2762:	f2 0f 59 ca          	mulsd  %xmm2,%xmm1
    2766:	f2 0f 59 dc          	mulsd  %xmm4,%xmm3
    276a:	dd 1c 24             	fstpl  (%rsp)
    276d:	f2 0f 59 ce          	mulsd  %xmm6,%xmm1
    2771:	f2 0f 59 de          	mulsd  %xmm6,%xmm3
    2775:	f2 0f 58 e1          	addsd  %xmm1,%xmm4
    2779:	f2 0f 10 0c 24       	movsd  (%rsp),%xmm1
    277e:	f2 0f 5c eb          	subsd  %xmm3,%xmm5
    2782:	f2 0f 59 ca          	mulsd  %xmm2,%xmm1
    2786:	f2 0f 5c c1          	subsd  %xmm1,%xmm0
    278a:	41 83 fe 20          	cmp    $0x20,%r14d
    278e:	0f 85 dc fe ff ff    	jne    2670 <_re_cordic+0xb0>
    2794:	f2 0f 10 05 d4 5b 00 	movsd  0x5bd4(%rip),%xmm0        # 8370 <_IO_stdin_used+0x370>
    279b:	00 
    279c:	4c 8b 74 24 20       	mov    0x20(%rsp),%r14
    27a1:	f2 0f 59 e8          	mulsd  %xmm0,%xmm5
    27a5:	f2 0f 59 e0          	mulsd  %xmm0,%xmm4
    27a9:	80 7c 24 2f 00       	cmpb   $0x0,0x2f(%rsp)
    27ae:	74 10                	je     27c0 <_re_cordic+0x200>
    27b0:	66 0f 57 2d 38 5c 00 	xorpd  0x5c38(%rip),%xmm5        # 83f0 <_IO_stdin_used+0x3f0>
    27b7:	00 
    27b8:	66 0f 57 25 30 5c 00 	xorpd  0x5c30(%rip),%xmm4        # 83f0 <_IO_stdin_used+0x3f0>
    27bf:	00 
    27c0:	48 8b 44 24 18       	mov    0x18(%rsp),%rax
    27c5:	48 85 c0             	test   %rax,%rax
    27c8:	74 04                	je     27ce <_re_cordic+0x20e>
    27ca:	f2 0f 11 28          	movsd  %xmm5,(%rax)
    27ce:	4d 85 f6             	test   %r14,%r14
    27d1:	74 05                	je     27d8 <_re_cordic+0x218>
    27d3:	f2 41 0f 11 26       	movsd  %xmm4,(%r14)
    27d8:	48 8b 44 24 48       	mov    0x48(%rsp),%rax
    27dd:	64 48 2b 04 25 28 00 	sub    %fs:0x28,%rax
    27e4:	00 00 
    27e6:	75 42                	jne    282a <_re_cordic+0x26a>
    27e8:	48 83 c4 58          	add    $0x58,%rsp
    27ec:	5b                   	pop    %rbx
    27ed:	5d                   	pop    %rbp
    27ee:	41 5c                	pop    %r12
    27f0:	41 5d                	pop    %r13
    27f2:	41 5e                	pop    %r14
    27f4:	41 5f                	pop    %r15
    27f6:	c3                   	ret
    27f7:	66 0f 1f 84 00 00 00 	nopw   0x0(%rax,%rax,1)
    27fe:	00 00 
    2800:	db 2d 1a 5c 00 00    	fldt   0x5c1a(%rip)        # 8420 <_IO_stdin_used+0x420>
    2806:	d9 c9                	fxch   %st(1)
    2808:	df f1                	fcomip %st(1),%st
    280a:	dd d8                	fstp   %st(0)
    280c:	76 12                	jbe    2820 <_re_cordic+0x260>
    280e:	f2 0f 5c 05 f2 5a 00 	subsd  0x5af2(%rip),%xmm0        # 8308 <_IO_stdin_used+0x308>
    2815:	00 
    2816:	c6 44 24 2f 01       	movb   $0x1,0x2f(%rsp)
    281b:	e9 1a fe ff ff       	jmp    263a <_re_cordic+0x7a>
    2820:	c6 44 24 2f 00       	movb   $0x0,0x2f(%rsp)
    2825:	e9 10 fe ff ff       	jmp    263a <_re_cordic+0x7a>
    282a:	e8 11 e8 ff ff       	call   1040 <__stack_chk_fail@plt>
    282f:	90                   	nop

0000000000002830 <tan>:
    2830:	55                   	push   %rbp
    2831:	53                   	push   %rbx
    2832:	48 83 ec 48          	sub    $0x48,%rsp
    2836:	64 48 8b 04 25 28 00 	mov    %fs:0x28,%rax
    283d:	00 00 
    283f:	48 89 44 24 38       	mov    %rax,0x38(%rsp)
    2844:	31 c0                	xor    %eax,%eax
    2846:	48 8d 74 24 18       	lea    0x18(%rsp),%rsi
    284b:	48 8d 7c 24 10       	lea    0x10(%rsp),%rdi
    2850:	48 c7 44 24 10 00 00 	movq   $0x0,0x10(%rsp)
    2857:	00 00 
    2859:	48 c7 44 24 18 00 00 	movq   $0x0,0x18(%rsp)
    2860:	00 00 
    2862:	48 8d 6c 24 30       	lea    0x30(%rsp),%rbp
    2867:	e8 54 fd ff ff       	call   25c0 <_re_cordic>
    286c:	f2 0f 10 4c 24 18    	movsd  0x18(%rsp),%xmm1
    2872:	ba 08 00 00 00       	mov    $0x8,%edx
    2877:	48 89 ef             	mov    %rbp,%rdi
    287a:	48 8d 74 24 28       	lea    0x28(%rsp),%rsi
    287f:	f2 0f 11 4c 24 28    	movsd  %xmm1,0x28(%rsp)
    2885:	f2 0f 11 4c 24 08    	movsd  %xmm1,0x8(%rsp)
    288b:	e8 20 29 00 00       	call   51b0 <memmove>
    2890:	ba 08 00 00 00       	mov    $0x8,%edx
    2895:	48 89 ee             	mov    %rbp,%rsi
    2898:	48 8d 7c 24 28       	lea    0x28(%rsp),%rdi
    289d:	48 0f ba 74 24 30 3f 	btrq   $0x3f,0x30(%rsp)
    28a4:	e8 07 29 00 00       	call   51b0 <memmove>
    28a9:	f2 0f 10 05 ef 5a 00 	movsd  0x5aef(%rip),%xmm0        # 83a0 <_IO_stdin_used+0x3a0>
    28b0:	00 
    28b1:	66 0f 2f 44 24 28    	comisd 0x28(%rsp),%xmm0
    28b7:	73 27                	jae    28e0 <tan+0xb0>
    28b9:	f2 0f 10 44 24 10    	movsd  0x10(%rsp),%xmm0
    28bf:	f2 0f 5e 44 24 08    	divsd  0x8(%rsp),%xmm0
    28c5:	48 8b 44 24 38       	mov    0x38(%rsp),%rax
    28ca:	64 48 2b 04 25 28 00 	sub    %fs:0x28,%rax
    28d1:	00 00 
    28d3:	75 53                	jne    2928 <tan+0xf8>
    28d5:	48 83 c4 48          	add    $0x48,%rsp
    28d9:	5b                   	pop    %rbx
    28da:	5d                   	pop    %rbp
    28db:	c3                   	ret
    28dc:	0f 1f 40 00          	nopl   0x0(%rax)
    28e0:	83 0d 41 87 00 00 08 	orl    $0x8,0x8741(%rip)        # b028 <_re_fe_curr_env>
    28e7:	f6 05 3e 87 00 00 08 	testb  $0x8,0x873e(%rip)        # b02c <_re_fe_curr_env+0x4>
    28ee:	75 2e                	jne    291e <tan+0xee>
    28f0:	48 c7 44 24 20 00 00 	movq   $0x0,0x20(%rsp)
    28f7:	00 00 
    28f9:	48 c7 44 24 28 00 00 	movq   $0x0,0x28(%rsp)
    2900:	00 00 
    2902:	f2 0f 10 44 24 20    	movsd  0x20(%rsp),%xmm0
    2908:	f2 0f 10 4c 24 28    	movsd  0x28(%rsp),%xmm1
    290e:	f2 0f 5e c1          	divsd  %xmm1,%xmm0
    2912:	f2 0f 11 44 24 30    	movsd  %xmm0,0x30(%rsp)
    2918:	f2 0f 10 44 24 30    	movsd  0x30(%rsp),%xmm0
    291e:	f2 0f 10 05 72 5a 00 	movsd  0x5a72(%rip),%xmm0        # 8398 <_IO_stdin_used+0x398>
    2925:	00 
    2926:	eb 9d                	jmp    28c5 <tan+0x95>
    2928:	e8 13 e7 ff ff       	call   1040 <__stack_chk_fail@plt>
    292d:	0f 1f 00             	nopl   (%rax)

0000000000002930 <fmodf>:
    2930:	48 83 ec 48          	sub    $0x48,%rsp
    2934:	64 48 8b 04 25 28 00 	mov    %fs:0x28,%rax
    293b:	00 00 
    293d:	48 89 44 24 38       	mov    %rax,0x38(%rsp)
    2942:	31 c0                	xor    %eax,%eax
    2944:	0f 2e c0             	ucomiss %xmm0,%xmm0
    2947:	0f 8a 53 01 00 00    	jp     2aa0 <fmodf+0x170>
    294d:	0f 2e c9             	ucomiss %xmm1,%xmm1
    2950:	0f 8a 62 01 00 00    	jp     2ab8 <fmodf+0x188>
    2956:	66 0f ef d2          	pxor   %xmm2,%xmm2
    295a:	0f 2e ca             	ucomiss %xmm2,%xmm1
    295d:	7a 06                	jp     2965 <fmodf+0x35>
    295f:	0f 84 5b 01 00 00    	je     2ac0 <fmodf+0x190>
    2965:	0f 28 d0             	movaps %xmm0,%xmm2
    2968:	f3 0f 5e d1          	divss  %xmm1,%xmm2
    296c:	0f 2e d2             	ucomiss %xmm2,%xmm2
    296f:	0f 8a 23 01 00 00    	jp     2a98 <fmodf+0x168>
    2975:	66 0f ef db          	pxor   %xmm3,%xmm3
    2979:	ba 00 00 00 00       	mov    $0x0,%edx
    297e:	0f 2e d3             	ucomiss %xmm3,%xmm2
    2981:	0f 9b c0             	setnp  %al
    2984:	0f 45 c2             	cmovne %edx,%eax
    2987:	84 c0                	test   %al,%al
    2989:	0f 85 09 01 00 00    	jne    2a98 <fmodf+0x168>
    298f:	f2 0f 10 1d 19 59 00 	movsd  0x5919(%rip),%xmm3        # 82b0 <_IO_stdin_used+0x2b0>
    2996:	00 
    2997:	66 0f ef ed          	pxor   %xmm5,%xmm5
    299b:	66 0f ef e4          	pxor   %xmm4,%xmm4
    299f:	f3 0f 5a e2          	cvtss2sd %xmm2,%xmm4
    29a3:	f2 0f 5e dd          	divsd  %xmm5,%xmm3
    29a7:	66 0f 2e e3          	ucomisd %xmm3,%xmm4
    29ab:	7a 06                	jp     29b3 <fmodf+0x83>
    29ad:	0f 84 e5 00 00 00    	je     2a98 <fmodf+0x168>
    29b3:	66 0f 57 1d 35 5a 00 	xorpd  0x5a35(%rip),%xmm3        # 83f0 <_IO_stdin_used+0x3f0>
    29ba:	00 
    29bb:	66 0f 2e e3          	ucomisd %xmm3,%xmm4
    29bf:	7a 06                	jp     29c7 <fmodf+0x97>
    29c1:	0f 84 d1 00 00 00    	je     2a98 <fmodf+0x168>
    29c7:	4c 8d 4c 24 28       	lea    0x28(%rsp),%r9
    29cc:	4c 8d 44 24 30       	lea    0x30(%rsp),%r8
    29d1:	ba 04 00 00 00       	mov    $0x4,%edx
    29d6:	f3 0f 11 4c 24 1c    	movss  %xmm1,0x1c(%rsp)
    29dc:	4c 89 ce             	mov    %r9,%rsi
    29df:	4c 89 c7             	mov    %r8,%rdi
    29e2:	4c 89 4c 24 10       	mov    %r9,0x10(%rsp)
    29e7:	4c 89 44 24 08       	mov    %r8,0x8(%rsp)
    29ec:	f3 0f 11 44 24 18    	movss  %xmm0,0x18(%rsp)
    29f2:	f3 0f 11 54 24 28    	movss  %xmm2,0x28(%rsp)
    29f8:	e8 b3 27 00 00       	call   51b0 <memmove>
    29fd:	8b 44 24 30          	mov    0x30(%rsp),%eax
    2a01:	31 f6                	xor    %esi,%esi
    2a03:	4c 8b 44 24 08       	mov    0x8(%rsp),%r8
    2a08:	4c 8b 4c 24 10       	mov    0x10(%rsp),%r9
    2a0d:	f3 0f 10 44 24 18    	movss  0x18(%rsp),%xmm0
    2a13:	89 c2                	mov    %eax,%edx
    2a15:	f3 0f 10 4c 24 1c    	movss  0x1c(%rsp),%xmm1
    2a1b:	c1 ea 17             	shr    $0x17,%edx
    2a1e:	89 d7                	mov    %edx,%edi
    2a20:	81 e7 ff 00 00 00    	and    $0xff,%edi
    2a26:	74 35                	je     2a5d <fmodf+0x12d>
    2a28:	89 c7                	mov    %eax,%edi
    2a2a:	81 e7 ff ff 7f 00    	and    $0x7fffff,%edi
    2a30:	80 ea 7f             	sub    $0x7f,%dl
    2a33:	0f 88 d9 00 00 00    	js     2b12 <fmodf+0x1e2>
    2a39:	44 0f b6 d2          	movzbl %dl,%r10d
    2a3d:	41 8d 72 7f          	lea    0x7f(%r10),%esi
    2a41:	c1 e6 17             	shl    $0x17,%esi
    2a44:	80 fa 17             	cmp    $0x17,%dl
    2a47:	7f 14                	jg     2a5d <fmodf+0x12d>
    2a49:	b9 18 00 00 00       	mov    $0x18,%ecx
    2a4e:	48 c7 c2 ff ff ff ff 	mov    $0xffffffffffffffff,%rdx
    2a55:	44 29 d1             	sub    %r10d,%ecx
    2a58:	48 d3 e2             	shl    %cl,%rdx
    2a5b:	21 d7                	and    %edx,%edi
    2a5d:	09 fe                	or     %edi,%esi
    2a5f:	25 00 00 00 80       	and    $0x80000000,%eax
    2a64:	4c 89 c7             	mov    %r8,%rdi
    2a67:	ba 04 00 00 00       	mov    $0x4,%edx
    2a6c:	09 f0                	or     %esi,%eax
    2a6e:	4c 89 ce             	mov    %r9,%rsi
    2a71:	f3 0f 11 4c 24 10    	movss  %xmm1,0x10(%rsp)
    2a77:	f3 0f 11 44 24 08    	movss  %xmm0,0x8(%rsp)
    2a7d:	89 44 24 28          	mov    %eax,0x28(%rsp)
    2a81:	e8 2a 27 00 00       	call   51b0 <memmove>
    2a86:	f3 0f 10 54 24 30    	movss  0x30(%rsp),%xmm2
    2a8c:	f3 0f 10 4c 24 10    	movss  0x10(%rsp),%xmm1
    2a92:	f3 0f 10 44 24 08    	movss  0x8(%rsp),%xmm0
    2a98:	f3 0f 59 ca          	mulss  %xmm2,%xmm1
    2a9c:	f3 0f 5c c1          	subss  %xmm1,%xmm0
    2aa0:	48 8b 44 24 38       	mov    0x38(%rsp),%rax
    2aa5:	64 48 2b 04 25 28 00 	sub    %fs:0x28,%rax
    2aac:	00 00 
    2aae:	75 5d                	jne    2b0d <fmodf+0x1dd>
    2ab0:	48 83 c4 48          	add    $0x48,%rsp
    2ab4:	c3                   	ret
    2ab5:	0f 1f 00             	nopl   (%rax)
    2ab8:	0f 28 c1             	movaps %xmm1,%xmm0
    2abb:	eb e3                	jmp    2aa0 <fmodf+0x170>
    2abd:	0f 1f 00             	nopl   (%rax)
    2ac0:	83 0d 61 85 00 00 01 	orl    $0x1,0x8561(%rip)        # b028 <_re_fe_curr_env>
    2ac7:	f6 05 5e 85 00 00 01 	testb  $0x1,0x855e(%rip)        # b02c <_re_fe_curr_env+0x4>
    2ace:	75 33                	jne    2b03 <fmodf+0x1d3>
    2ad0:	f2 0f 10 05 d8 57 00 	movsd  0x57d8(%rip),%xmm0        # 82b0 <_IO_stdin_used+0x2b0>
    2ad7:	00 
    2ad8:	f2 0f 11 44 24 20    	movsd  %xmm0,0x20(%rsp)
    2ade:	48 c7 44 24 28 00 00 	movq   $0x0,0x28(%rsp)
    2ae5:	00 00 
    2ae7:	f2 0f 10 44 24 20    	movsd  0x20(%rsp),%xmm0
    2aed:	f2 0f 10 4c 24 28    	movsd  0x28(%rsp),%xmm1
    2af3:	f2 0f 5e c1          	divsd  %xmm1,%xmm0
    2af7:	f2 0f 11 44 24 30    	movsd  %xmm0,0x30(%rsp)
    2afd:	f2 0f 10 44 24 30    	movsd  0x30(%rsp),%xmm0
    2b03:	f3 0f 10 05 f9 54 00 	movss  0x54f9(%rip),%xmm0        # 8004 <_IO_stdin_used+0x4>
    2b0a:	00 
    2b0b:	eb 93                	jmp    2aa0 <fmodf+0x170>
    2b0d:	e8 2e e5 ff ff       	call   1040 <__stack_chk_fail@plt>
    2b12:	31 ff                	xor    %edi,%edi
    2b14:	e9 44 ff ff ff       	jmp    2a5d <fmodf+0x12d>
    2b19:	0f 1f 80 00 00 00 00 	nopl   0x0(%rax)

0000000000002b20 <_re_cordicf>:
    2b20:	41 57                	push   %r15
    2b22:	41 56                	push   %r14
    2b24:	41 55                	push   %r13
    2b26:	41 54                	push   %r12
    2b28:	55                   	push   %rbp
    2b29:	53                   	push   %rbx
    2b2a:	48 83 ec 38          	sub    $0x38,%rsp
    2b2e:	f3 0f 58 05 da 54 00 	addss  0x54da(%rip),%xmm0        # 8010 <_IO_stdin_used+0x10>
    2b35:	00 
    2b36:	f3 0f 10 0d d6 54 00 	movss  0x54d6(%rip),%xmm1        # 8014 <_IO_stdin_used+0x14>
    2b3d:	00 
    2b3e:	48 89 7c 24 08       	mov    %rdi,0x8(%rsp)
    2b43:	48 89 74 24 10       	mov    %rsi,0x10(%rsp)
    2b48:	64 48 8b 04 25 28 00 	mov    %fs:0x28,%rax
    2b4f:	00 00 
    2b51:	48 89 44 24 28       	mov    %rax,0x28(%rsp)
    2b56:	31 c0                	xor    %eax,%eax
    2b58:	e8 d3 fd ff ff       	call   2930 <fmodf>
    2b5d:	66 0f ef c9          	pxor   %xmm1,%xmm1
    2b61:	0f 2f c8             	comiss %xmm0,%xmm1
    2b64:	76 08                	jbe    2b6e <_re_cordicf+0x4e>
    2b66:	f3 0f 58 05 a6 54 00 	addss  0x54a6(%rip),%xmm0        # 8014 <_IO_stdin_used+0x14>
    2b6d:	00 
    2b6e:	f3 0f 5c 05 9a 54 00 	subss  0x549a(%rip),%xmm0        # 8010 <_IO_stdin_used+0x10>
    2b75:	00 
    2b76:	f3 0f 11 04 24       	movss  %xmm0,(%rsp)
    2b7b:	d9 04 24             	flds   (%rsp)
    2b7e:	db 2d 8c 58 00 00    	fldt   0x588c(%rip)        # 8410 <_IO_stdin_used+0x410>
    2b84:	df f1                	fcomip %st(1),%st
    2b86:	0f 86 9c 01 00 00    	jbe    2d28 <_re_cordicf+0x208>
    2b8c:	dd d8                	fstp   %st(0)
    2b8e:	f3 0f 58 05 7a 54 00 	addss  0x547a(%rip),%xmm0        # 8010 <_IO_stdin_used+0x10>
    2b95:	00 
    2b96:	c6 44 24 1f 01       	movb   $0x1,0x1f(%rsp)
    2b9b:	f3 0f 10 2d 65 54 00 	movss  0x5465(%rip),%xmm5        # 8008 <_IO_stdin_used+0x8>
    2ba2:	00 
    2ba3:	45 31 f6             	xor    %r14d,%r14d
    2ba6:	66 0f ef e4          	pxor   %xmm4,%xmm4
    2baa:	48 8d 6c 24 24       	lea    0x24(%rsp),%rbp
    2baf:	4c 8d 3d ca 58 00 00 	lea    0x58ca(%rip),%r15        # 8480 <_cordic_atan_table>
    2bb6:	66 2e 0f 1f 84 00 00 	cs nopw 0x0(%rax,%rax,1)
    2bbd:	00 00 00 
    2bc0:	ba 04 00 00 00       	mov    $0x4,%edx
    2bc5:	48 8d 74 24 20       	lea    0x20(%rsp),%rsi
    2bca:	48 89 ef             	mov    %rbp,%rdi
    2bcd:	f3 0f 11 64 24 18    	movss  %xmm4,0x18(%rsp)
    2bd3:	f3 0f 11 2c 24       	movss  %xmm5,(%rsp)
    2bd8:	49 83 c7 10          	add    $0x10,%r15
    2bdc:	f3 0f 11 44 24 20    	movss  %xmm0,0x20(%rsp)
    2be2:	f3 0f 11 44 24 04    	movss  %xmm0,0x4(%rsp)
    2be8:	e8 c3 25 00 00       	call   51b0 <memmove>
    2bed:	ba 04 00 00 00       	mov    $0x4,%edx
    2bf2:	48 89 ef             	mov    %rbp,%rdi
    2bf5:	8b 5c 24 24          	mov    0x24(%rsp),%ebx
    2bf9:	48 8d 74 24 20       	lea    0x20(%rsp),%rsi
    2bfe:	c7 44 24 20 00 00 80 	movl   $0x3f800000,0x20(%rsp)
    2c05:	3f 
    2c06:	e8 a5 25 00 00       	call   51b0 <memmove>
    2c0b:	8b 54 24 24          	mov    0x24(%rsp),%edx
    2c0f:	48 8d 74 24 20       	lea    0x20(%rsp),%rsi
    2c14:	48 89 ef             	mov    %rbp,%rdi
    2c17:	81 e3 00 00 00 80    	and    $0x80000000,%ebx
    2c1d:	89 d0                	mov    %edx,%eax
    2c1f:	81 e2 ff ff 7f 00    	and    $0x7fffff,%edx
    2c25:	c1 e8 17             	shr    $0x17,%eax
    2c28:	09 d3                	or     %edx,%ebx
    2c2a:	ba 04 00 00 00       	mov    $0x4,%edx
    2c2f:	83 e8 7f             	sub    $0x7f,%eax
    2c32:	0f be c0             	movsbl %al,%eax
    2c35:	83 c0 7f             	add    $0x7f,%eax
    2c38:	c1 e0 17             	shl    $0x17,%eax
    2c3b:	25 00 00 80 7f       	and    $0x7f800000,%eax
    2c40:	09 c3                	or     %eax,%ebx
    2c42:	89 5c 24 20          	mov    %ebx,0x20(%rsp)
    2c46:	e8 65 25 00 00       	call   51b0 <memmove>
    2c4b:	44 89 f1             	mov    %r14d,%ecx
    2c4e:	b8 01 00 00 00       	mov    $0x1,%eax
    2c53:	66 0f ef c9          	pxor   %xmm1,%xmm1
    2c57:	48 d3 e0             	shl    %cl,%rax
    2c5a:	f3 0f 10 2c 24       	movss  (%rsp),%xmm5
    2c5f:	49 83 c6 01          	add    $0x1,%r14
    2c63:	f3 0f 10 35 9d 53 00 	movss  0x539d(%rip),%xmm6        # 8008 <_IO_stdin_used+0x8>
    2c6a:	00 
    2c6b:	f3 48 0f 2a c8       	cvtsi2ss %rax,%xmm1
    2c70:	f3 0f 10 54 24 24    	movss  0x24(%rsp),%xmm2
    2c76:	f3 0f 10 64 24 18    	movss  0x18(%rsp),%xmm4
    2c7c:	41 db 6f f0          	fldt   -0x10(%r15)
    2c80:	f3 0f 10 44 24 04    	movss  0x4(%rsp),%xmm0
    2c86:	0f 28 da             	movaps %xmm2,%xmm3
    2c89:	f3 0f 59 dc          	mulss  %xmm4,%xmm3
    2c8d:	f3 0f 5e f1          	divss  %xmm1,%xmm6
    2c91:	0f 28 cd             	movaps %xmm5,%xmm1
    2c94:	d9 1c 24             	fstps  (%rsp)
    2c97:	f3 0f 59 ca          	mulss  %xmm2,%xmm1
    2c9b:	f3 0f 59 ce          	mulss  %xmm6,%xmm1
    2c9f:	f3 0f 59 de          	mulss  %xmm6,%xmm3
    2ca3:	f3 0f 58 e1          	addss  %xmm1,%xmm4
    2ca7:	f3 0f 10 0c 24       	movss  (%rsp),%xmm1
    2cac:	f3 0f 5c eb          	subss  %xmm3,%xmm5
    2cb0:	f3 0f 59 ca          	mulss  %xmm2,%xmm1
    2cb4:	f3 0f 5c c1          	subss  %xmm1,%xmm0
    2cb8:	49 83 fe 20          	cmp    $0x20,%r14
    2cbc:	0f 85 fe fe ff ff    	jne    2bc0 <_re_cordicf+0xa0>
    2cc2:	f3 0f 10 05 42 53 00 	movss  0x5342(%rip),%xmm0        # 800c <_IO_stdin_used+0xc>
    2cc9:	00 
    2cca:	f3 0f 59 e8          	mulss  %xmm0,%xmm5
    2cce:	f3 0f 59 e0          	mulss  %xmm0,%xmm4
    2cd2:	80 7c 24 1f 00       	cmpb   $0x0,0x1f(%rsp)
    2cd7:	74 0e                	je     2ce7 <_re_cordicf+0x1c7>
    2cd9:	0f 57 2d 50 57 00 00 	xorps  0x5750(%rip),%xmm5        # 8430 <_IO_stdin_used+0x430>
    2ce0:	0f 57 25 49 57 00 00 	xorps  0x5749(%rip),%xmm4        # 8430 <_IO_stdin_used+0x430>
    2ce7:	48 8b 44 24 10       	mov    0x10(%rsp),%rax
    2cec:	48 85 c0             	test   %rax,%rax
    2cef:	74 04                	je     2cf5 <_re_cordicf+0x1d5>
    2cf1:	f3 0f 11 28          	movss  %xmm5,(%rax)
    2cf5:	48 8b 44 24 08       	mov    0x8(%rsp),%rax
    2cfa:	48 85 c0             	test   %rax,%rax
    2cfd:	74 04                	je     2d03 <_re_cordicf+0x1e3>
    2cff:	f3 0f 11 20          	movss  %xmm4,(%rax)
    2d03:	48 8b 44 24 28       	mov    0x28(%rsp),%rax
    2d08:	64 48 2b 04 25 28 00 	sub    %fs:0x28,%rax
    2d0f:	00 00 
    2d11:	75 3f                	jne    2d52 <_re_cordicf+0x232>
    2d13:	48 83 c4 38          	add    $0x38,%rsp
    2d17:	5b                   	pop    %rbx
    2d18:	5d                   	pop    %rbp
    2d19:	41 5c                	pop    %r12
    2d1b:	41 5d                	pop    %r13
    2d1d:	41 5e                	pop    %r14
    2d1f:	41 5f                	pop    %r15
    2d21:	c3                   	ret
    2d22:	66 0f 1f 44 00 00    	nopw   0x0(%rax,%rax,1)
    2d28:	db 2d f2 56 00 00    	fldt   0x56f2(%rip)        # 8420 <_IO_stdin_used+0x420>
    2d2e:	d9 c9                	fxch   %st(1)
    2d30:	df f1                	fcomip %st(1),%st
    2d32:	dd d8                	fstp   %st(0)
    2d34:	76 12                	jbe    2d48 <_re_cordicf+0x228>
    2d36:	f3 0f 5c 05 d2 52 00 	subss  0x52d2(%rip),%xmm0        # 8010 <_IO_stdin_used+0x10>
    2d3d:	00 
    2d3e:	c6 44 24 1f 01       	movb   $0x1,0x1f(%rsp)
    2d43:	e9 53 fe ff ff       	jmp    2b9b <_re_cordicf+0x7b>
    2d48:	c6 44 24 1f 00       	movb   $0x0,0x1f(%rsp)
    2d4d:	e9 49 fe ff ff       	jmp    2b9b <_re_cordicf+0x7b>
    2d52:	e8 e9 e2 ff ff       	call   1040 <__stack_chk_fail@plt>
    2d57:	66 0f 1f 84 00 00 00 	nopw   0x0(%rax,%rax,1)
    2d5e:	00 00 

0000000000002d60 <tanf>:
    2d60:	55                   	push   %rbp
    2d61:	53                   	push   %rbx
    2d62:	48 83 ec 48          	sub    $0x48,%rsp
    2d66:	64 48 8b 04 25 28 00 	mov    %fs:0x28,%rax
    2d6d:	00 00 
    2d6f:	48 89 44 24 38       	mov    %rax,0x38(%rsp)
    2d74:	31 c0                	xor    %eax,%eax
    2d76:	48 8d 74 24 1c       	lea    0x1c(%rsp),%rsi
    2d7b:	48 8d 7c 24 18       	lea    0x18(%rsp),%rdi
    2d80:	c7 44 24 18 00 00 00 	movl   $0x0,0x18(%rsp)
    2d87:	00 
    2d88:	48 8d 6c 24 30       	lea    0x30(%rsp),%rbp
    2d8d:	c7 44 24 1c 00 00 00 	movl   $0x0,0x1c(%rsp)
    2d94:	00 
    2d95:	e8 86 fd ff ff       	call   2b20 <_re_cordicf>
    2d9a:	f3 0f 10 4c 24 1c    	movss  0x1c(%rsp),%xmm1
    2da0:	ba 04 00 00 00       	mov    $0x4,%edx
    2da5:	48 89 ef             	mov    %rbp,%rdi
    2da8:	48 8d 74 24 28       	lea    0x28(%rsp),%rsi
    2dad:	f3 0f 11 4c 24 28    	movss  %xmm1,0x28(%rsp)
    2db3:	f3 0f 11 4c 24 0c    	movss  %xmm1,0xc(%rsp)
    2db9:	e8 f2 23 00 00       	call   51b0 <memmove>
    2dbe:	ba 04 00 00 00       	mov    $0x4,%edx
    2dc3:	48 89 ee             	mov    %rbp,%rsi
    2dc6:	48 8d 7c 24 28       	lea    0x28(%rsp),%rdi
    2dcb:	81 64 24 30 ff ff ff 	andl   $0x7fffffff,0x30(%rsp)
    2dd2:	7f 
    2dd3:	e8 d8 23 00 00       	call   51b0 <memmove>
    2dd8:	f3 0f 10 05 3c 52 00 	movss  0x523c(%rip),%xmm0        # 801c <_IO_stdin_used+0x1c>
    2ddf:	00 
    2de0:	0f 2f 44 24 28       	comiss 0x28(%rsp),%xmm0
    2de5:	77 29                	ja     2e10 <tanf+0xb0>
    2de7:	f3 0f 10 44 24 18    	movss  0x18(%rsp),%xmm0
    2ded:	f3 0f 5e 44 24 0c    	divss  0xc(%rsp),%xmm0
    2df3:	48 8b 44 24 38       	mov    0x38(%rsp),%rax
    2df8:	64 48 2b 04 25 28 00 	sub    %fs:0x28,%rax
    2dff:	00 00 
    2e01:	75 55                	jne    2e58 <tanf+0xf8>
    2e03:	48 83 c4 48          	add    $0x48,%rsp
    2e07:	5b                   	pop    %rbx
    2e08:	5d                   	pop    %rbp
    2e09:	c3                   	ret
    2e0a:	66 0f 1f 44 00 00    	nopw   0x0(%rax,%rax,1)
    2e10:	83 0d 11 82 00 00 08 	orl    $0x8,0x8211(%rip)        # b028 <_re_fe_curr_env>
    2e17:	f6 05 0e 82 00 00 08 	testb  $0x8,0x820e(%rip)        # b02c <_re_fe_curr_env+0x4>
    2e1e:	75 2e                	jne    2e4e <tanf+0xee>
    2e20:	48 c7 44 24 20 00 00 	movq   $0x0,0x20(%rsp)
    2e27:	00 00 
    2e29:	48 c7 44 24 28 00 00 	movq   $0x0,0x28(%rsp)
    2e30:	00 00 
    2e32:	f2 0f 10 44 24 20    	movsd  0x20(%rsp),%xmm0
    2e38:	f2 0f 10 4c 24 28    	movsd  0x28(%rsp),%xmm1
    2e3e:	f2 0f 5e c1          	divsd  %xmm1,%xmm0
    2e42:	f2 0f 11 44 24 30    	movsd  %xmm0,0x30(%rsp)
    2e48:	f2 0f 10 44 24 30    	movsd  0x30(%rsp),%xmm0
    2e4e:	f3 0f 10 05 c2 51 00 	movss  0x51c2(%rip),%xmm0        # 8018 <_IO_stdin_used+0x18>
    2e55:	00 
    2e56:	eb 9b                	jmp    2df3 <tanf+0x93>
    2e58:	e8 e3 e1 ff ff       	call   1040 <__stack_chk_fail@plt>
    2e5d:	0f 1f 00             	nopl   (%rax)

0000000000002e60 <fmodl>:
    2e60:	48 83 ec 58          	sub    $0x58,%rsp
    2e64:	64 48 8b 04 25 28 00 	mov    %fs:0x28,%rax
    2e6b:	00 00 
    2e6d:	48 89 44 24 48       	mov    %rax,0x48(%rsp)
    2e72:	31 c0                	xor    %eax,%eax
    2e74:	db 6c 24 70          	fldt   0x70(%rsp)
    2e78:	db 6c 24 60          	fldt   0x60(%rsp)
    2e7c:	db e8                	fucomi %st(0),%st
    2e7e:	0f 8a 5c 01 00 00    	jp     2fe0 <fmodl+0x180>
    2e84:	d9 c9                	fxch   %st(1)
    2e86:	db e8                	fucomi %st(0),%st
    2e88:	0f 8a 7a 01 00 00    	jp     3008 <fmodl+0x1a8>
    2e8e:	d9 ee                	fldz
    2e90:	d9 c9                	fxch   %st(1)
    2e92:	db e9                	fucomi %st(1),%st
    2e94:	dd d9                	fstp   %st(1)
    2e96:	7a 06                	jp     2e9e <fmodl+0x3e>
    2e98:	0f 84 72 01 00 00    	je     3010 <fmodl+0x1b0>
    2e9e:	d9 c1                	fld    %st(1)
    2ea0:	d8 f1                	fdiv   %st(1),%st
    2ea2:	db e8                	fucomi %st(0),%st
    2ea4:	0f 8a 27 01 00 00    	jp     2fd1 <fmodl+0x171>
    2eaa:	d9 ee                	fldz
    2eac:	ba 00 00 00 00       	mov    $0x0,%edx
    2eb1:	df e9                	fucomip %st(1),%st
    2eb3:	0f 9b c0             	setnp  %al
    2eb6:	0f 45 c2             	cmovne %edx,%eax
    2eb9:	84 c0                	test   %al,%al
    2ebb:	0f 85 10 01 00 00    	jne    2fd1 <fmodl+0x171>
    2ec1:	f2 0f 10 05 e7 53 00 	movsd  0x53e7(%rip),%xmm0        # 82b0 <_IO_stdin_used+0x2b0>
    2ec8:	00 
    2ec9:	66 0f ef c9          	pxor   %xmm1,%xmm1
    2ecd:	f2 0f 5e c1          	divsd  %xmm1,%xmm0
    2ed1:	f2 0f 11 04 24       	movsd  %xmm0,(%rsp)
    2ed6:	dd 04 24             	fldl   (%rsp)
    2ed9:	d9 c9                	fxch   %st(1)
    2edb:	db e9                	fucomi %st(1),%st
    2edd:	dd d9                	fstp   %st(1)
    2edf:	7a 06                	jp     2ee7 <fmodl+0x87>
    2ee1:	0f 84 ea 00 00 00    	je     2fd1 <fmodl+0x171>
    2ee7:	66 0f 57 05 01 55 00 	xorpd  0x5501(%rip),%xmm0        # 83f0 <_IO_stdin_used+0x3f0>
    2eee:	00 
    2eef:	f2 0f 11 04 24       	movsd  %xmm0,(%rsp)
    2ef4:	dd 04 24             	fldl   (%rsp)
    2ef7:	d9 c9                	fxch   %st(1)
    2ef9:	db e9                	fucomi %st(1),%st
    2efb:	dd d9                	fstp   %st(1)
    2efd:	7a 0a                	jp     2f09 <fmodl+0xa9>
    2eff:	0f 84 cc 00 00 00    	je     2fd1 <fmodl+0x171>
    2f05:	d9 c9                	fxch   %st(1)
    2f07:	eb 07                	jmp    2f10 <fmodl+0xb0>
    2f09:	d9 c9                	fxch   %st(1)
    2f0b:	0f 1f 44 00 00       	nopl   0x0(%rax,%rax,1)
    2f10:	db 7c 24 70          	fstpt  0x70(%rsp)
    2f14:	d9 c9                	fxch   %st(1)
    2f16:	4c 8d 44 24 20       	lea    0x20(%rsp),%r8
    2f1b:	48 8d 7c 24 30       	lea    0x30(%rsp),%rdi
    2f20:	ba 10 00 00 00       	mov    $0x10,%edx
    2f25:	4c 89 c6             	mov    %r8,%rsi
    2f28:	4c 89 44 24 08       	mov    %r8,0x8(%rsp)
    2f2d:	db 7c 24 60          	fstpt  0x60(%rsp)
    2f31:	48 89 3c 24          	mov    %rdi,(%rsp)
    2f35:	db 7c 24 20          	fstpt  0x20(%rsp)
    2f39:	e8 72 22 00 00       	call   51b0 <memmove>
    2f3e:	0f b7 44 24 38       	movzwl 0x38(%rsp),%eax
    2f43:	db 6c 24 60          	fldt   0x60(%rsp)
    2f47:	48 8b 3c 24          	mov    (%rsp),%rdi
    2f4b:	db 6c 24 70          	fldt   0x70(%rsp)
    2f4f:	89 c6                	mov    %eax,%esi
    2f51:	4c 8b 44 24 08       	mov    0x8(%rsp),%r8
    2f56:	66 81 e6 ff 7f       	and    $0x7fff,%si
    2f5b:	74 2b                	je     2f88 <fmodl+0x128>
    2f5d:	0f b7 ce             	movzwl %si,%ecx
    2f60:	81 e9 ff 3f 00 00    	sub    $0x3fff,%ecx
    2f66:	78 20                	js     2f88 <fmodl+0x128>
    2f68:	48 8b 54 24 30       	mov    0x30(%rsp),%rdx
    2f6d:	83 f9 3f             	cmp    $0x3f,%ecx
    2f70:	7f 1d                	jg     2f8f <fmodl+0x12f>
    2f72:	f7 d9                	neg    %ecx
    2f74:	41 b9 01 00 00 00    	mov    $0x1,%r9d
    2f7a:	49 d3 e1             	shl    %cl,%r9
    2f7d:	49 f7 d9             	neg    %r9
    2f80:	4c 21 ca             	and    %r9,%rdx
    2f83:	eb 0a                	jmp    2f8f <fmodl+0x12f>
    2f85:	0f 1f 00             	nopl   (%rax)
    2f88:	be fe 7f 00 00       	mov    $0x7ffe,%esi
    2f8d:	31 d2                	xor    %edx,%edx
    2f8f:	db 7c 24 70          	fstpt  0x70(%rsp)
    2f93:	66 25 00 80          	and    $0x8000,%ax
    2f97:	31 c9                	xor    %ecx,%ecx
    2f99:	09 f0                	or     %esi,%eax
    2f9b:	4c 89 c6             	mov    %r8,%rsi
    2f9e:	48 89 54 24 20       	mov    %rdx,0x20(%rsp)
    2fa3:	ba 10 00 00 00       	mov    $0x10,%edx
    2fa8:	db 7c 24 60          	fstpt  0x60(%rsp)
    2fac:	c7 44 24 2a 00 00 00 	movl   $0x0,0x2a(%rsp)
    2fb3:	00 
    2fb4:	66 89 4c 24 2e       	mov    %cx,0x2e(%rsp)
    2fb9:	66 89 44 24 28       	mov    %ax,0x28(%rsp)
    2fbe:	e8 ed 21 00 00       	call   51b0 <memmove>
    2fc3:	db 6c 24 30          	fldt   0x30(%rsp)
    2fc7:	db 6c 24 70          	fldt   0x70(%rsp)
    2fcb:	db 6c 24 60          	fldt   0x60(%rsp)
    2fcf:	d9 ca                	fxch   %st(2)
    2fd1:	de c9                	fmulp  %st,%st(1)
    2fd3:	de e9                	fsubrp %st,%st(1)
    2fd5:	eb 19                	jmp    2ff0 <fmodl+0x190>
    2fd7:	66 0f 1f 84 00 00 00 	nopw   0x0(%rax,%rax,1)
    2fde:	00 00 
    2fe0:	dd d9                	fstp   %st(1)
    2fe2:	66 66 2e 0f 1f 84 00 	data16 cs nopw 0x0(%rax,%rax,1)
    2fe9:	00 00 00 00 
    2fed:	0f 1f 00             	nopl   (%rax)
    2ff0:	48 8b 44 24 48       	mov    0x48(%rsp),%rax
    2ff5:	64 48 2b 04 25 28 00 	sub    %fs:0x28,%rax
    2ffc:	00 00 
    2ffe:	75 5f                	jne    305f <fmodl+0x1ff>
    3000:	48 83 c4 58          	add    $0x58,%rsp
    3004:	c3                   	ret
    3005:	0f 1f 00             	nopl   (%rax)
    3008:	dd d9                	fstp   %st(1)
    300a:	eb e4                	jmp    2ff0 <fmodl+0x190>
    300c:	0f 1f 40 00          	nopl   0x0(%rax)
    3010:	dd d8                	fstp   %st(0)
    3012:	dd d8                	fstp   %st(0)
    3014:	83 0d 0d 80 00 00 01 	orl    $0x1,0x800d(%rip)        # b028 <_re_fe_curr_env>
    301b:	f6 05 0a 80 00 00 01 	testb  $0x1,0x800a(%rip)        # b02c <_re_fe_curr_env+0x4>
    3022:	75 33                	jne    3057 <fmodl+0x1f7>
    3024:	f2 0f 10 05 84 52 00 	movsd  0x5284(%rip),%xmm0        # 82b0 <_IO_stdin_used+0x2b0>
    302b:	00 
    302c:	f2 0f 11 44 24 18    	movsd  %xmm0,0x18(%rsp)
    3032:	48 c7 44 24 20 00 00 	movq   $0x0,0x20(%rsp)
    3039:	00 00 
    303b:	f2 0f 10 44 24 18    	movsd  0x18(%rsp),%xmm0
    3041:	f2 0f 10 4c 24 20    	movsd  0x20(%rsp),%xmm1
    3047:	f2 0f 5e c1          	divsd  %xmm1,%xmm0
    304b:	f2 0f 11 44 24 30    	movsd  %xmm0,0x30(%rsp)
    3051:	f2 0f 10 44 24 30    	movsd  0x30(%rsp),%xmm0
    3057:	d9 05 a7 4f 00 00    	flds   0x4fa7(%rip)        # 8004 <_IO_stdin_used+0x4>
    305d:	eb 91                	jmp    2ff0 <fmodl+0x190>
    305f:	dd d8                	fstp   %st(0)
    3061:	e8 da df ff ff       	call   1040 <__stack_chk_fail@plt>
    3066:	66 2e 0f 1f 84 00 00 	cs nopw 0x0(%rax,%rax,1)
    306d:	00 00 00 

0000000000003070 <_re_cordicl>:
    3070:	48 ba 35 c2 68 21 a2 	movabs $0xc90fdaa22168c235,%rdx
    3077:	da 0f c9 
    307a:	41 57                	push   %r15
    307c:	41 56                	push   %r14
    307e:	41 55                	push   %r13
    3080:	41 54                	push   %r12
    3082:	55                   	push   %rbp
    3083:	53                   	push   %rbx
    3084:	48 81 ec 88 00 00 00 	sub    $0x88,%rsp
    308b:	48 89 7c 24 38       	mov    %rdi,0x38(%rsp)
    3090:	48 89 74 24 40       	mov    %rsi,0x40(%rsp)
    3095:	64 48 8b 04 25 28 00 	mov    %fs:0x28,%rax
    309c:	00 00 
    309e:	48 89 44 24 78       	mov    %rax,0x78(%rsp)
    30a3:	31 c0                	xor    %eax,%eax
    30a5:	68 00 40 00 00       	push   $0x4000
    30aa:	52                   	push   %rdx
    30ab:	db ac 24 d0 00 00 00 	fldt   0xd0(%rsp)
    30b2:	db 2d 68 53 00 00    	fldt   0x5368(%rip)        # 8420 <_IO_stdin_used+0x420>
    30b8:	48 83 ec 10          	sub    $0x10,%rsp
    30bc:	de c1                	faddp  %st,%st(1)
    30be:	db 3c 24             	fstpt  (%rsp)
    30c1:	e8 9a fd ff ff       	call   2e60 <fmodl>
    30c6:	48 83 c4 20          	add    $0x20,%rsp
    30ca:	d9 ee                	fldz
    30cc:	df f1                	fcomip %st(1),%st
    30ce:	0f 87 a4 01 00 00    	ja     3278 <_re_cordicl+0x208>
    30d4:	db 2d 46 53 00 00    	fldt   0x5346(%rip)        # 8420 <_IO_stdin_used+0x420>
    30da:	de e9                	fsubrp %st,%st(1)
    30dc:	db 3c 24             	fstpt  (%rsp)
    30df:	eb 0f                	jmp    30f0 <_re_cordicl+0x80>
    30e1:	dd d8                	fstp   %st(0)
    30e3:	66 66 2e 0f 1f 84 00 	data16 cs nopw 0x0(%rax,%rax,1)
    30ea:	00 00 00 00 
    30ee:	66 90                	xchg   %ax,%ax
    30f0:	db 2d 2a 53 00 00    	fldt   0x532a(%rip)        # 8420 <_IO_stdin_used+0x420>
    30f6:	db 2c 24             	fldt   (%rsp)
    30f9:	db f1                	fcomi  %st(1),%st
    30fb:	dd d9                	fstp   %st(1)
    30fd:	0f 87 60 01 00 00    	ja     3263 <_re_cordicl+0x1f3>
    3103:	dd d8                	fstp   %st(0)
    3105:	c6 44 24 4f 00       	movb   $0x0,0x4f(%rsp)
    310a:	d9 ee                	fldz
    310c:	4c 8d 64 24 50       	lea    0x50(%rsp),%r12
    3111:	48 8d 6c 24 60       	lea    0x60(%rsp),%rbp
    3116:	45 31 f6             	xor    %r14d,%r14d
    3119:	d9 e8                	fld1
    311b:	4c 8d 3d 5e 53 00 00 	lea    0x535e(%rip),%r15        # 8480 <_cordic_atan_table>
    3122:	d9 c0                	fld    %st(0)
    3124:	d9 ca                	fxch   %st(2)
    3126:	eb 0c                	jmp    3134 <_re_cordicl+0xc4>
    3128:	0f 1f 84 00 00 00 00 	nopl   0x0(%rax,%rax,1)
    312f:	00 
    3130:	d9 ca                	fxch   %st(2)
    3132:	d9 c9                	fxch   %st(1)
    3134:	db 7c 24 20          	fstpt  0x20(%rsp)
    3138:	ba 10 00 00 00       	mov    $0x10,%edx
    313d:	4c 89 e6             	mov    %r12,%rsi
    3140:	48 89 ef             	mov    %rbp,%rdi
    3143:	49 83 c7 10          	add    $0x10,%r15
    3147:	db 7c 24 10          	fstpt  0x10(%rsp)
    314b:	db 7c 24 50          	fstpt  0x50(%rsp)
    314f:	e8 5c 20 00 00       	call   51b0 <memmove>
    3154:	db 2c 24             	fldt   (%rsp)
    3157:	ba 10 00 00 00       	mov    $0x10,%edx
    315c:	4c 89 e6             	mov    %r12,%rsi
    315f:	48 89 ef             	mov    %rbp,%rdi
    3162:	0f b7 5c 24 68       	movzwl 0x68(%rsp),%ebx
    3167:	4c 8b 6c 24 60       	mov    0x60(%rsp),%r13
    316c:	db 7c 24 50          	fstpt  0x50(%rsp)
    3170:	66 81 e3 ff 7f       	and    $0x7fff,%bx
    3175:	e8 36 20 00 00       	call   51b0 <memmove>
    317a:	31 c0                	xor    %eax,%eax
    317c:	ba 10 00 00 00       	mov    $0x10,%edx
    3181:	4c 89 e6             	mov    %r12,%rsi
    3184:	66 89 44 24 5e       	mov    %ax,0x5e(%rsp)
    3189:	0f b7 44 24 68       	movzwl 0x68(%rsp),%eax
    318e:	48 89 ef             	mov    %rbp,%rdi
    3191:	c7 44 24 5a 00 00 00 	movl   $0x0,0x5a(%rsp)
    3198:	00 
    3199:	66 25 00 80          	and    $0x8000,%ax
    319d:	4c 89 6c 24 50       	mov    %r13,0x50(%rsp)
    31a2:	09 d8                	or     %ebx,%eax
    31a4:	66 89 44 24 58       	mov    %ax,0x58(%rsp)
    31a9:	e8 02 20 00 00       	call   51b0 <memmove>
    31ae:	44 89 f1             	mov    %r14d,%ecx
    31b1:	b8 01 00 00 00       	mov    $0x1,%eax
    31b6:	41 83 c6 01          	add    $0x1,%r14d
    31ba:	db 6c 24 60          	fldt   0x60(%rsp)
    31be:	48 d3 e0             	shl    %cl,%rax
    31c1:	48 89 44 24 30       	mov    %rax,0x30(%rsp)
    31c6:	df 6c 24 30          	fildll 0x30(%rsp)
    31ca:	d9 e8                	fld1
    31cc:	dc f1                	fdiv   %st,%st(1)
    31ce:	db 6c 24 10          	fldt   0x10(%rsp)
    31d2:	d9 c0                	fld    %st(0)
    31d4:	d9 c4                	fld    %st(4)
    31d6:	db 6c 24 20          	fldt   0x20(%rsp)
    31da:	dc c9                	fmul   %st,%st(1)
    31dc:	d9 c9                	fxch   %st(1)
    31de:	d8 cd                	fmul   %st(5),%st
    31e0:	de eb                	fsubrp %st,%st(3)
    31e2:	d9 c9                	fxch   %st(1)
    31e4:	d8 cd                	fmul   %st(5),%st
    31e6:	de cc                	fmulp  %st,%st(4)
    31e8:	de c3                	faddp  %st,%st(3)
    31ea:	41 db 6f f0          	fldt   -0x10(%r15)
    31ee:	de cc                	fmulp  %st,%st(4)
    31f0:	db 2c 24             	fldt   (%rsp)
    31f3:	de e4                	fsubp  %st,%st(4)
    31f5:	d9 cb                	fxch   %st(3)
    31f7:	db 3c 24             	fstpt  (%rsp)
    31fa:	41 83 fe 20          	cmp    $0x20,%r14d
    31fe:	0f 85 2c ff ff ff    	jne    3130 <_re_cordicl+0xc0>
    3204:	dd d8                	fstp   %st(0)
    3206:	db 2d f4 51 00 00    	fldt   0x51f4(%rip)        # 8400 <_IO_stdin_used+0x400>
    320c:	dc ca                	fmul   %st,%st(2)
    320e:	de c9                	fmulp  %st,%st(1)
    3210:	80 7c 24 4f 00       	cmpb   $0x0,0x4f(%rsp)
    3215:	74 08                	je     321f <_re_cordicl+0x1af>
    3217:	d9 c9                	fxch   %st(1)
    3219:	d9 e0                	fchs
    321b:	d9 c9                	fxch   %st(1)
    321d:	d9 e0                	fchs
    321f:	48 8b 44 24 40       	mov    0x40(%rsp),%rax
    3224:	48 85 c0             	test   %rax,%rax
    3227:	74 06                	je     322f <_re_cordicl+0x1bf>
    3229:	d9 c9                	fxch   %st(1)
    322b:	db 38                	fstpt  (%rax)
    322d:	eb 02                	jmp    3231 <_re_cordicl+0x1c1>
    322f:	dd d9                	fstp   %st(1)
    3231:	48 8b 44 24 38       	mov    0x38(%rsp),%rax
    3236:	48 85 c0             	test   %rax,%rax
    3239:	74 04                	je     323f <_re_cordicl+0x1cf>
    323b:	db 38                	fstpt  (%rax)
    323d:	eb 02                	jmp    3241 <_re_cordicl+0x1d1>
    323f:	dd d8                	fstp   %st(0)
    3241:	48 8b 44 24 78       	mov    0x78(%rsp),%rax
    3246:	64 48 2b 04 25 28 00 	sub    %fs:0x28,%rax
    324d:	00 00 
    324f:	75 57                	jne    32a8 <_re_cordicl+0x238>
    3251:	48 81 c4 88 00 00 00 	add    $0x88,%rsp
    3258:	5b                   	pop    %rbx
    3259:	5d                   	pop    %rbp
    325a:	41 5c                	pop    %r12
    325c:	41 5d                	pop    %r13
    325e:	41 5e                	pop    %r14
    3260:	41 5f                	pop    %r15
    3262:	c3                   	ret
    3263:	d9 eb                	fldpi
    3265:	c6 44 24 4f 01       	movb   $0x1,0x4f(%rsp)
    326a:	de e9                	fsubrp %st,%st(1)
    326c:	db 3c 24             	fstpt  (%rsp)
    326f:	e9 96 fe ff ff       	jmp    310a <_re_cordicl+0x9a>
    3274:	0f 1f 40 00          	nopl   0x0(%rax)
    3278:	d9 eb                	fldpi
    327a:	de c1                	faddp  %st,%st(1)
    327c:	db 2d 9e 51 00 00    	fldt   0x519e(%rip)        # 8420 <_IO_stdin_used+0x420>
    3282:	de e9                	fsubrp %st,%st(1)
    3284:	d9 c0                	fld    %st(0)
    3286:	db 3c 24             	fstpt  (%rsp)
    3289:	db 2d 81 51 00 00    	fldt   0x5181(%rip)        # 8410 <_IO_stdin_used+0x410>
    328f:	df f1                	fcomip %st(1),%st
    3291:	0f 86 4a fe ff ff    	jbe    30e1 <_re_cordicl+0x71>
    3297:	d9 eb                	fldpi
    3299:	c6 44 24 4f 01       	movb   $0x1,0x4f(%rsp)
    329e:	de c1                	faddp  %st,%st(1)
    32a0:	db 3c 24             	fstpt  (%rsp)
    32a3:	e9 62 fe ff ff       	jmp    310a <_re_cordicl+0x9a>
    32a8:	e8 93 dd ff ff       	call   1040 <__stack_chk_fail@plt>
    32ad:	0f 1f 00             	nopl   (%rax)

00000000000032b0 <tanl>:
    32b0:	55                   	push   %rbp
    32b1:	53                   	push   %rbx
    32b2:	48 83 ec 78          	sub    $0x78,%rsp
    32b6:	64 48 8b 04 25 28 00 	mov    %fs:0x28,%rax
    32bd:	00 00 
    32bf:	48 89 44 24 68       	mov    %rax,0x68(%rsp)
    32c4:	31 c0                	xor    %eax,%eax
    32c6:	48 8d 74 24 30       	lea    0x30(%rsp),%rsi
    32cb:	48 8d 7c 24 20       	lea    0x20(%rsp),%rdi
    32d0:	48 c7 44 24 20 00 00 	movq   $0x0,0x20(%rsp)
    32d7:	00 00 
    32d9:	c7 44 24 28 00 00 00 	movl   $0x0,0x28(%rsp)
    32e0:	00 
    32e1:	48 c7 44 24 30 00 00 	movq   $0x0,0x30(%rsp)
    32e8:	00 00 
    32ea:	c7 44 24 38 00 00 00 	movl   $0x0,0x38(%rsp)
    32f1:	00 
    32f2:	ff b4 24 98 00 00 00 	push   0x98(%rsp)
    32f9:	ff b4 24 98 00 00 00 	push   0x98(%rsp)
    3300:	e8 6b fd ff ff       	call   3070 <_re_cordicl>
    3305:	db 6c 24 40          	fldt   0x40(%rsp)
    3309:	48 8d 6c 24 50       	lea    0x50(%rsp),%rbp
    330e:	48 8d 7c 24 60       	lea    0x60(%rsp),%rdi
    3313:	ba 10 00 00 00       	mov    $0x10,%edx
    3318:	48 89 ee             	mov    %rbp,%rsi
    331b:	d9 c0                	fld    %st(0)
    331d:	db 7c 24 50          	fstpt  0x50(%rsp)
    3321:	db 7c 24 10          	fstpt  0x10(%rsp)
    3325:	e8 86 1e 00 00       	call   51b0 <memmove>
    332a:	31 d2                	xor    %edx,%edx
    332c:	0f b7 44 24 68       	movzwl 0x68(%rsp),%eax
    3331:	48 89 ee             	mov    %rbp,%rsi
    3334:	66 89 54 24 5e       	mov    %dx,0x5e(%rsp)
    3339:	48 8b 54 24 60       	mov    0x60(%rsp),%rdx
    333e:	48 8d 7c 24 60       	lea    0x60(%rsp),%rdi
    3343:	66 25 ff 7f          	and    $0x7fff,%ax
    3347:	c7 44 24 5a 00 00 00 	movl   $0x0,0x5a(%rsp)
    334e:	00 
    334f:	48 89 54 24 50       	mov    %rdx,0x50(%rsp)
    3354:	ba 10 00 00 00       	mov    $0x10,%edx
    3359:	66 89 44 24 58       	mov    %ax,0x58(%rsp)
    335e:	e8 4d 1e 00 00       	call   51b0 <memmove>
    3363:	59                   	pop    %rcx
    3364:	5e                   	pop    %rsi
    3365:	db 6c 24 50          	fldt   0x50(%rsp)
    3369:	dd 05 31 50 00 00    	fldl   0x5031(%rip)        # 83a0 <_IO_stdin_used+0x3a0>
    336f:	df f1                	fcomip %st(1),%st
    3371:	dd d8                	fstp   %st(0)
    3373:	db 2c 24             	fldt   (%rsp)
    3376:	77 20                	ja     3398 <tanl+0xe8>
    3378:	db 6c 24 20          	fldt   0x20(%rsp)
    337c:	de f1                	fdivp  %st,%st(1)
    337e:	48 8b 44 24 68       	mov    0x68(%rsp),%rax
    3383:	64 48 2b 04 25 28 00 	sub    %fs:0x28,%rax
    338a:	00 00 
    338c:	75 52                	jne    33e0 <tanl+0x130>
    338e:	48 83 c4 78          	add    $0x78,%rsp
    3392:	5b                   	pop    %rbx
    3393:	5d                   	pop    %rbp
    3394:	c3                   	ret
    3395:	0f 1f 00             	nopl   (%rax)
    3398:	dd d8                	fstp   %st(0)
    339a:	83 0d 87 7c 00 00 08 	orl    $0x8,0x7c87(%rip)        # b028 <_re_fe_curr_env>
    33a1:	f6 05 84 7c 00 00 08 	testb  $0x8,0x7c84(%rip)        # b02c <_re_fe_curr_env+0x4>
    33a8:	75 2e                	jne    33d8 <tanl+0x128>
    33aa:	48 c7 44 24 18 00 00 	movq   $0x0,0x18(%rsp)
    33b1:	00 00 
    33b3:	48 c7 44 24 40 00 00 	movq   $0x0,0x40(%rsp)
    33ba:	00 00 
    33bc:	f2 0f 10 44 24 18    	movsd  0x18(%rsp),%xmm0
    33c2:	f2 0f 10 4c 24 40    	movsd  0x40(%rsp),%xmm1
    33c8:	f2 0f 5e c1          	divsd  %xmm1,%xmm0
    33cc:	f2 0f 11 44 24 50    	movsd  %xmm0,0x50(%rsp)
    33d2:	f2 0f 10 44 24 50    	movsd  0x50(%rsp),%xmm0
    33d8:	d9 05 3a 4c 00 00    	flds   0x4c3a(%rip)        # 8018 <_IO_stdin_used+0x18>
    33de:	eb 9e                	jmp    337e <tanl+0xce>
    33e0:	dd d8                	fstp   %st(0)
    33e2:	e8 59 dc ff ff       	call   1040 <__stack_chk_fail@plt>
    33e7:	66 0f 1f 84 00 00 00 	nopw   0x0(%rax,%rax,1)
    33ee:	00 00 

00000000000033f0 <expl>:
    33f0:	db 6c 24 08          	fldt   0x8(%rsp)
    33f4:	d9 05 26 4c 00 00    	flds   0x4c26(%rip)        # 8020 <_IO_stdin_used+0x20>
    33fa:	df f1                	fcomip %st(1),%st
    33fc:	77 7e                	ja     347c <expl+0x8c>
    33fe:	d9 e8                	fld1
    3400:	31 d2                	xor    %edx,%edx
    3402:	d9 e0                	fchs
    3404:	db f1                	fcomi  %st(1),%st
    3406:	76 1b                	jbe    3423 <expl+0x33>
    3408:	d9 05 16 4c 00 00    	flds   0x4c16(%rip)        # 8024 <_IO_stdin_used+0x24>
    340e:	eb 02                	jmp    3412 <expl+0x22>
    3410:	d9 c9                	fxch   %st(1)
    3412:	dc ca                	fmul   %st,%st(2)
    3414:	d9 c9                	fxch   %st(1)
    3416:	83 c2 01             	add    $0x1,%edx
    3419:	db f2                	fcomi  %st(2),%st
    341b:	77 f3                	ja     3410 <expl+0x20>
    341d:	dd d8                	fstp   %st(0)
    341f:	dd d8                	fstp   %st(0)
    3421:	eb 0d                	jmp    3430 <expl+0x40>
    3423:	dd d8                	fstp   %st(0)
    3425:	66 66 2e 0f 1f 84 00 	data16 cs nopw 0x0(%rax,%rax,1)
    342c:	00 00 00 00 
    3430:	d9 e8                	fld1
    3432:	b8 01 00 00 00       	mov    $0x1,%eax
    3437:	d9 c0                	fld    %st(0)
    3439:	0f 1f 80 00 00 00 00 	nopl   0x0(%rax)
    3440:	89 44 24 f4          	mov    %eax,-0xc(%rsp)
    3444:	db 44 24 f4          	fildl  -0xc(%rsp)
    3448:	83 c0 01             	add    $0x1,%eax
    344b:	d8 fb                	fdivr  %st(3),%st
    344d:	de c9                	fmulp  %st,%st(1)
    344f:	dc c1                	fadd   %st,%st(1)
    3451:	83 f8 41             	cmp    $0x41,%eax
    3454:	75 ea                	jne    3440 <expl+0x50>
    3456:	dd d8                	fstp   %st(0)
    3458:	dd d9                	fstp   %st(1)
    345a:	85 d2                	test   %edx,%edx
    345c:	74 1d                	je     347b <expl+0x8b>
    345e:	31 c0                	xor    %eax,%eax
    3460:	f6 c2 01             	test   $0x1,%dl
    3463:	74 0b                	je     3470 <expl+0x80>
    3465:	b8 01 00 00 00       	mov    $0x1,%eax
    346a:	d8 c8                	fmul   %st(0),%st
    346c:	39 d0                	cmp    %edx,%eax
    346e:	74 0b                	je     347b <expl+0x8b>
    3470:	d8 c8                	fmul   %st(0),%st
    3472:	83 c0 02             	add    $0x2,%eax
    3475:	d8 c8                	fmul   %st(0),%st
    3477:	39 d0                	cmp    %edx,%eax
    3479:	75 f5                	jne    3470 <expl+0x80>
    347b:	c3                   	ret
    347c:	dd d8                	fstp   %st(0)
    347e:	d9 ee                	fldz
    3480:	c3                   	ret
    3481:	66 66 2e 0f 1f 84 00 	data16 cs nopw 0x0(%rax,%rax,1)
    3488:	00 00 00 00 
    348c:	0f 1f 40 00          	nopl   0x0(%rax)

0000000000003490 <ldexp>:
    3490:	41 54                	push   %r12
    3492:	55                   	push   %rbp
    3493:	53                   	push   %rbx
    3494:	48 83 ec 50          	sub    $0x50,%rsp
    3498:	64 48 8b 04 25 28 00 	mov    %fs:0x28,%rax
    349f:	00 00 
    34a1:	48 89 44 24 48       	mov    %rax,0x48(%rsp)
    34a6:	31 c0                	xor    %eax,%eax
    34a8:	66 0f 2e c0          	ucomisd %xmm0,%xmm0
    34ac:	0f 8a 36 01 00 00    	jp     35e8 <ldexp+0x158>
    34b2:	66 0f ef d2          	pxor   %xmm2,%xmm2
    34b6:	ba 00 00 00 00       	mov    $0x0,%edx
    34bb:	66 0f 2e c2          	ucomisd %xmm2,%xmm0
    34bf:	0f 9b c0             	setnp  %al
    34c2:	0f 45 c2             	cmovne %edx,%eax
    34c5:	84 c0                	test   %al,%al
    34c7:	0f 85 1b 01 00 00    	jne    35e8 <ldexp+0x158>
    34cd:	f2 0f 10 0d db 4d 00 	movsd  0x4ddb(%rip),%xmm1        # 82b0 <_IO_stdin_used+0x2b0>
    34d4:	00 
    34d5:	41 89 fc             	mov    %edi,%r12d
    34d8:	f2 0f 5e ca          	divsd  %xmm2,%xmm1
    34dc:	66 0f 2e c8          	ucomisd %xmm0,%xmm1
    34e0:	7a 06                	jp     34e8 <ldexp+0x58>
    34e2:	0f 84 00 01 00 00    	je     35e8 <ldexp+0x158>
    34e8:	66 0f 57 0d 00 4f 00 	xorpd  0x4f00(%rip),%xmm1        # 83f0 <_IO_stdin_used+0x3f0>
    34ef:	00 
    34f0:	ba 00 00 00 00       	mov    $0x0,%edx
    34f5:	66 0f 2e c8          	ucomisd %xmm0,%xmm1
    34f9:	0f 9b c0             	setnp  %al
    34fc:	0f 45 c2             	cmovne %edx,%eax
    34ff:	84 c0                	test   %al,%al
    3501:	0f 85 e1 00 00 00    	jne    35e8 <ldexp+0x158>
    3507:	45 85 e4             	test   %r12d,%r12d
    350a:	0f 84 d8 00 00 00    	je     35e8 <ldexp+0x158>
    3510:	48 8d 6c 24 38       	lea    0x38(%rsp),%rbp
    3515:	ba 08 00 00 00       	mov    $0x8,%edx
    351a:	48 8d 7c 24 40       	lea    0x40(%rsp),%rdi
    351f:	f2 0f 11 44 24 38    	movsd  %xmm0,0x38(%rsp)
    3525:	48 89 ee             	mov    %rbp,%rsi
    3528:	f2 0f 11 44 24 08    	movsd  %xmm0,0x8(%rsp)
    352e:	e8 7d 1c 00 00       	call   51b0 <memmove>
    3533:	48 8b 4c 24 40       	mov    0x40(%rsp),%rcx
    3538:	f2 0f 10 44 24 08    	movsd  0x8(%rsp),%xmm0
    353e:	48 be ff ff ff ff ff 	movabs $0xfffffffffffff,%rsi
    3545:	ff 0f 00 
    3548:	48 89 cf             	mov    %rcx,%rdi
    354b:	49 89 c8             	mov    %rcx,%r8
    354e:	48 c1 ef 34          	shr    $0x34,%rdi
    3552:	49 21 f0             	and    %rsi,%r8
    3555:	66 81 e7 ff 07       	and    $0x7ff,%di
    355a:	4c 89 c2             	mov    %r8,%rdx
    355d:	8d 87 01 fc ff ff    	lea    -0x3ff(%rdi),%eax
    3563:	48 0f ba ea 34       	bts    $0x34,%rdx
    3568:	c1 e0 05             	shl    $0x5,%eax
    356b:	66 c1 f8 05          	sar    $0x5,%ax
    356f:	66 85 ff             	test   %di,%di
    3572:	0f bf f8             	movswl %ax,%edi
    3575:	49 0f 44 d0          	cmove  %r8,%rdx
    3579:	44 01 e7             	add    %r12d,%edi
    357c:	81 ff ff 03 00 00    	cmp    $0x3ff,%edi
    3582:	0f 8f 80 00 00 00    	jg     3608 <ldexp+0x178>
    3588:	81 ff 03 fc ff ff    	cmp    $0xfffffc03,%edi
    358e:	0f 8c c4 00 00 00    	jl     3658 <ldexp+0x1c8>
    3594:	48 bf 00 00 00 00 00 	movabs $0x7ff0000000000000,%rdi
    359b:	00 f0 7f 
    359e:	44 01 e0             	add    %r12d,%eax
    35a1:	48 21 f2             	and    %rsi,%rdx
    35a4:	c1 e0 05             	shl    $0x5,%eax
    35a7:	66 c1 f8 05          	sar    $0x5,%ax
    35ab:	98                   	cwtl
    35ac:	05 ff 03 00 00       	add    $0x3ff,%eax
    35b1:	48 c1 e0 34          	shl    $0x34,%rax
    35b5:	48 21 f8             	and    %rdi,%rax
    35b8:	48 bf 00 00 00 00 00 	movabs $0x8000000000000000,%rdi
    35bf:	00 00 80 
    35c2:	48 21 f9             	and    %rdi,%rcx
    35c5:	48 09 c8             	or     %rcx,%rax
    35c8:	48 09 d0             	or     %rdx,%rax
    35cb:	ba 08 00 00 00       	mov    $0x8,%edx
    35d0:	48 89 ee             	mov    %rbp,%rsi
    35d3:	48 8d 7c 24 40       	lea    0x40(%rsp),%rdi
    35d8:	48 89 44 24 38       	mov    %rax,0x38(%rsp)
    35dd:	e8 ce 1b 00 00       	call   51b0 <memmove>
    35e2:	f2 0f 10 44 24 40    	movsd  0x40(%rsp),%xmm0
    35e8:	48 8b 44 24 48       	mov    0x48(%rsp),%rax
    35ed:	64 48 2b 04 25 28 00 	sub    %fs:0x28,%rax
    35f4:	00 00 
    35f6:	0f 85 27 01 00 00    	jne    3723 <ldexp+0x293>
    35fc:	48 83 c4 50          	add    $0x50,%rsp
    3600:	5b                   	pop    %rbx
    3601:	5d                   	pop    %rbp
    3602:	41 5c                	pop    %r12
    3604:	c3                   	ret
    3605:	0f 1f 00             	nopl   (%rax)
    3608:	83 0d 19 7a 00 00 10 	orl    $0x10,0x7a19(%rip)        # b028 <_re_fe_curr_env>
    360f:	f6 05 16 7a 00 00 10 	testb  $0x10,0x7a16(%rip)        # b02c <_re_fe_curr_env+0x4>
    3616:	75 30                	jne    3648 <ldexp+0x1b8>
    3618:	f2 0f 10 05 58 4d 00 	movsd  0x4d58(%rip),%xmm0        # 8378 <_IO_stdin_used+0x378>
    361f:	00 
    3620:	f2 0f 11 44 24 18    	movsd  %xmm0,0x18(%rsp)
    3626:	f2 0f 11 44 24 38    	movsd  %xmm0,0x38(%rsp)
    362c:	f2 0f 10 44 24 18    	movsd  0x18(%rsp),%xmm0
    3632:	f2 0f 10 4c 24 38    	movsd  0x38(%rsp),%xmm1
    3638:	f2 0f 59 c1          	mulsd  %xmm1,%xmm0
    363c:	f2 0f 11 44 24 40    	movsd  %xmm0,0x40(%rsp)
    3642:	f2 0f 10 44 24 40    	movsd  0x40(%rsp),%xmm0
    3648:	f2 0f 10 05 48 4d 00 	movsd  0x4d48(%rip),%xmm0        # 8398 <_IO_stdin_used+0x398>
    364f:	00 
    3650:	eb 96                	jmp    35e8 <ldexp+0x158>
    3652:	66 0f 1f 44 00 00    	nopw   0x0(%rax,%rax,1)
    3658:	83 0d c9 79 00 00 20 	orl    $0x20,0x79c9(%rip)        # b028 <_re_fe_curr_env>
    365f:	f6 05 c6 79 00 00 20 	testb  $0x20,0x79c6(%rip)        # b02c <_re_fe_curr_env+0x4>
    3666:	75 30                	jne    3698 <ldexp+0x208>
    3668:	f2 0f 10 0d 10 4d 00 	movsd  0x4d10(%rip),%xmm1        # 8380 <_IO_stdin_used+0x380>
    366f:	00 
    3670:	f2 0f 11 4c 24 20    	movsd  %xmm1,0x20(%rsp)
    3676:	f2 0f 11 4c 24 28    	movsd  %xmm1,0x28(%rsp)
    367c:	f2 0f 10 4c 24 20    	movsd  0x20(%rsp),%xmm1
    3682:	f2 0f 10 54 24 28    	movsd  0x28(%rsp),%xmm2
    3688:	f2 0f 59 ca          	mulsd  %xmm2,%xmm1
    368c:	f2 0f 11 4c 24 30    	movsd  %xmm1,0x30(%rsp)
    3692:	f2 0f 10 4c 24 30    	movsd  0x30(%rsp),%xmm1
    3698:	ba 08 00 00 00       	mov    $0x8,%edx
    369d:	48 89 ee             	mov    %rbp,%rsi
    36a0:	48 8d 7c 24 40       	lea    0x40(%rsp),%rdi
    36a5:	f2 0f 11 44 24 38    	movsd  %xmm0,0x38(%rsp)
    36ab:	e8 00 1b 00 00       	call   51b0 <memmove>
    36b0:	ba 08 00 00 00       	mov    $0x8,%edx
    36b5:	48 89 ee             	mov    %rbp,%rsi
    36b8:	48 8d 7c 24 40       	lea    0x40(%rsp),%rdi
    36bd:	48 c7 44 24 38 00 00 	movq   $0x0,0x38(%rsp)
    36c4:	00 00 
    36c6:	4c 8b 64 24 40       	mov    0x40(%rsp),%r12
    36cb:	e8 e0 1a 00 00       	call   51b0 <memmove>
    36d0:	48 8b 54 24 40       	mov    0x40(%rsp),%rdx
    36d5:	48 b9 00 00 00 00 00 	movabs $0x7ff0000000000000,%rcx
    36dc:	00 f0 7f 
    36df:	48 89 d0             	mov    %rdx,%rax
    36e2:	48 c1 e8 34          	shr    $0x34,%rax
    36e6:	c1 e0 05             	shl    $0x5,%eax
    36e9:	66 2d e0 7f          	sub    $0x7fe0,%ax
    36ed:	66 c1 f8 05          	sar    $0x5,%ax
    36f1:	98                   	cwtl
    36f2:	05 ff 03 00 00       	add    $0x3ff,%eax
    36f7:	48 c1 e0 34          	shl    $0x34,%rax
    36fb:	48 21 c8             	and    %rcx,%rax
    36fe:	48 b9 00 00 00 00 00 	movabs $0x8000000000000000,%rcx
    3705:	00 00 80 
    3708:	49 21 cc             	and    %rcx,%r12
    370b:	48 b9 ff ff ff ff ff 	movabs $0xfffffffffffff,%rcx
    3712:	ff 0f 00 
    3715:	48 21 ca             	and    %rcx,%rdx
    3718:	49 09 d4             	or     %rdx,%r12
    371b:	4c 09 e0             	or     %r12,%rax
    371e:	e9 a8 fe ff ff       	jmp    35cb <ldexp+0x13b>
    3723:	e8 18 d9 ff ff       	call   1040 <__stack_chk_fail@plt>
    3728:	0f 1f 84 00 00 00 00 	nopl   0x0(%rax,%rax,1)
    372f:	00 

0000000000003730 <ldexpf>:
    3730:	41 57                	push   %r15
    3732:	41 56                	push   %r14
    3734:	53                   	push   %rbx
    3735:	48 83 ec 60          	sub    $0x60,%rsp
    3739:	64 48 8b 04 25 28 00 	mov    %fs:0x28,%rax
    3740:	00 00 
    3742:	48 89 44 24 58       	mov    %rax,0x58(%rsp)
    3747:	31 c0                	xor    %eax,%eax
    3749:	0f 2e c0             	ucomiss %xmm0,%xmm0
    374c:	0f 8a 14 01 00 00    	jp     3866 <ldexpf+0x136>
    3752:	66 0f ef c9          	pxor   %xmm1,%xmm1
    3756:	ba 00 00 00 00       	mov    $0x0,%edx
    375b:	0f 2e c1             	ucomiss %xmm1,%xmm0
    375e:	0f 9b c0             	setnp  %al
    3761:	0f 45 c2             	cmovne %edx,%eax
    3764:	84 c0                	test   %al,%al
    3766:	0f 85 fa 00 00 00    	jne    3866 <ldexpf+0x136>
    376c:	f2 0f 10 0d 3c 4b 00 	movsd  0x4b3c(%rip),%xmm1        # 82b0 <_IO_stdin_used+0x2b0>
    3773:	00 
    3774:	66 0f ef db          	pxor   %xmm3,%xmm3
    3778:	66 0f ef d2          	pxor   %xmm2,%xmm2
    377c:	89 fb                	mov    %edi,%ebx
    377e:	f3 0f 5a d0          	cvtss2sd %xmm0,%xmm2
    3782:	f2 0f 5e cb          	divsd  %xmm3,%xmm1
    3786:	66 0f 2e d1          	ucomisd %xmm1,%xmm2
    378a:	7a 06                	jp     3792 <ldexpf+0x62>
    378c:	0f 84 d4 00 00 00    	je     3866 <ldexpf+0x136>
    3792:	66 0f 57 0d 56 4c 00 	xorpd  0x4c56(%rip),%xmm1        # 83f0 <_IO_stdin_used+0x3f0>
    3799:	00 
    379a:	ba 00 00 00 00       	mov    $0x0,%edx
    379f:	66 0f 2e ca          	ucomisd %xmm2,%xmm1
    37a3:	0f 9b c0             	setnp  %al
    37a6:	0f 45 c2             	cmovne %edx,%eax
    37a9:	84 c0                	test   %al,%al
    37ab:	0f 85 b5 00 00 00    	jne    3866 <ldexpf+0x136>
    37b1:	85 db                	test   %ebx,%ebx
    37b3:	0f 84 ad 00 00 00    	je     3866 <ldexpf+0x136>
    37b9:	48 8d 74 24 48       	lea    0x48(%rsp),%rsi
    37be:	48 8d 7c 24 50       	lea    0x50(%rsp),%rdi
    37c3:	ba 04 00 00 00       	mov    $0x4,%edx
    37c8:	f3 0f 11 44 24 48    	movss  %xmm0,0x48(%rsp)
    37ce:	48 89 74 24 10       	mov    %rsi,0x10(%rsp)
    37d3:	48 89 7c 24 08       	mov    %rdi,0x8(%rsp)
    37d8:	f3 0f 11 44 24 1c    	movss  %xmm0,0x1c(%rsp)
    37de:	e8 cd 19 00 00       	call   51b0 <memmove>
    37e3:	8b 4c 24 50          	mov    0x50(%rsp),%ecx
    37e7:	48 8b 7c 24 08       	mov    0x8(%rsp),%rdi
    37ec:	48 8b 74 24 10       	mov    0x10(%rsp),%rsi
    37f1:	f3 0f 10 44 24 1c    	movss  0x1c(%rsp),%xmm0
    37f7:	41 89 c8             	mov    %ecx,%r8d
    37fa:	89 ca                	mov    %ecx,%edx
    37fc:	41 c1 e8 17          	shr    $0x17,%r8d
    3800:	81 e2 ff ff 7f 00    	and    $0x7fffff,%edx
    3806:	41 89 d1             	mov    %edx,%r9d
    3809:	41 8d 40 81          	lea    -0x7f(%r8),%eax
    380d:	41 81 c9 00 00 80 00 	or     $0x800000,%r9d
    3814:	45 84 c0             	test   %r8b,%r8b
    3817:	44 0f be c0          	movsbl %al,%r8d
    381b:	41 0f 45 d1          	cmovne %r9d,%edx
    381f:	41 01 d8             	add    %ebx,%r8d
    3822:	41 83 f8 7f          	cmp    $0x7f,%r8d
    3826:	7f 60                	jg     3888 <ldexpf+0x158>
    3828:	41 83 f8 83          	cmp    $0xffffff83,%r8d
    382c:	0f 8c a6 00 00 00    	jl     38d8 <ldexpf+0x1a8>
    3832:	01 d8                	add    %ebx,%eax
    3834:	81 e1 00 00 00 80    	and    $0x80000000,%ecx
    383a:	81 e2 ff ff 7f 00    	and    $0x7fffff,%edx
    3840:	0f be c0             	movsbl %al,%eax
    3843:	83 c0 7f             	add    $0x7f,%eax
    3846:	c1 e0 17             	shl    $0x17,%eax
    3849:	25 00 00 80 7f       	and    $0x7f800000,%eax
    384e:	09 c8                	or     %ecx,%eax
    3850:	09 d0                	or     %edx,%eax
    3852:	ba 04 00 00 00       	mov    $0x4,%edx
    3857:	89 44 24 48          	mov    %eax,0x48(%rsp)
    385b:	e8 50 19 00 00       	call   51b0 <memmove>
    3860:	f3 0f 10 44 24 50    	movss  0x50(%rsp),%xmm0
    3866:	48 8b 44 24 58       	mov    0x58(%rsp),%rax
    386b:	64 48 2b 04 25 28 00 	sub    %fs:0x28,%rax
    3872:	00 00 
    3874:	0f 85 29 01 00 00    	jne    39a3 <ldexpf+0x273>
    387a:	48 83 c4 60          	add    $0x60,%rsp
    387e:	5b                   	pop    %rbx
    387f:	41 5e                	pop    %r14
    3881:	41 5f                	pop    %r15
    3883:	c3                   	ret
    3884:	0f 1f 40 00          	nopl   0x0(%rax)
    3888:	83 0d 99 77 00 00 10 	orl    $0x10,0x7799(%rip)        # b028 <_re_fe_curr_env>
    388f:	f6 05 96 77 00 00 10 	testb  $0x10,0x7796(%rip)        # b02c <_re_fe_curr_env+0x4>
    3896:	75 30                	jne    38c8 <ldexpf+0x198>
    3898:	f2 0f 10 05 d8 4a 00 	movsd  0x4ad8(%rip),%xmm0        # 8378 <_IO_stdin_used+0x378>
    389f:	00 
    38a0:	f2 0f 11 44 24 28    	movsd  %xmm0,0x28(%rsp)
    38a6:	f2 0f 11 44 24 30    	movsd  %xmm0,0x30(%rsp)
    38ac:	f2 0f 10 44 24 28    	movsd  0x28(%rsp),%xmm0
    38b2:	f2 0f 10 4c 24 30    	movsd  0x30(%rsp),%xmm1
    38b8:	f2 0f 59 c1          	mulsd  %xmm1,%xmm0
    38bc:	f2 0f 11 44 24 38    	movsd  %xmm0,0x38(%rsp)
    38c2:	f2 0f 10 44 24 38    	movsd  0x38(%rsp),%xmm0
    38c8:	f3 0f 10 05 48 47 00 	movss  0x4748(%rip),%xmm0        # 8018 <_IO_stdin_used+0x18>
    38cf:	00 
    38d0:	eb 94                	jmp    3866 <ldexpf+0x136>
    38d2:	66 0f 1f 44 00 00    	nopw   0x0(%rax,%rax,1)
    38d8:	83 0d 49 77 00 00 20 	orl    $0x20,0x7749(%rip)        # b028 <_re_fe_curr_env>
    38df:	f6 05 46 77 00 00 20 	testb  $0x20,0x7746(%rip)        # b02c <_re_fe_curr_env+0x4>
    38e6:	75 30                	jne    3918 <ldexpf+0x1e8>
    38e8:	f2 0f 10 0d 90 4a 00 	movsd  0x4a90(%rip),%xmm1        # 8380 <_IO_stdin_used+0x380>
    38ef:	00 
    38f0:	f2 0f 11 4c 24 40    	movsd  %xmm1,0x40(%rsp)
    38f6:	f2 0f 11 4c 24 48    	movsd  %xmm1,0x48(%rsp)
    38fc:	f2 0f 10 4c 24 40    	movsd  0x40(%rsp),%xmm1
    3902:	f2 0f 10 54 24 48    	movsd  0x48(%rsp),%xmm2
    3908:	f2 0f 59 ca          	mulsd  %xmm2,%xmm1
    390c:	f2 0f 11 4c 24 50    	movsd  %xmm1,0x50(%rsp)
    3912:	f2 0f 10 4c 24 50    	movsd  0x50(%rsp),%xmm1
    3918:	ba 04 00 00 00       	mov    $0x4,%edx
    391d:	48 8d 74 24 30       	lea    0x30(%rsp),%rsi
    3922:	48 8d 7c 24 38       	lea    0x38(%rsp),%rdi
    3927:	f3 0f 11 44 24 30    	movss  %xmm0,0x30(%rsp)
    392d:	e8 7e 18 00 00       	call   51b0 <memmove>
    3932:	ba 04 00 00 00       	mov    $0x4,%edx
    3937:	48 8d 74 24 30       	lea    0x30(%rsp),%rsi
    393c:	48 8d 7c 24 38       	lea    0x38(%rsp),%rdi
    3941:	44 8b 7c 24 38       	mov    0x38(%rsp),%r15d
    3946:	c7 44 24 30 00 00 00 	movl   $0x0,0x30(%rsp)
    394d:	00 
    394e:	e8 5d 18 00 00       	call   51b0 <memmove>
    3953:	8b 4c 24 38          	mov    0x38(%rsp),%ecx
    3957:	48 8d 74 24 30       	lea    0x30(%rsp),%rsi
    395c:	48 8d 7c 24 38       	lea    0x38(%rsp),%rdi
    3961:	44 89 fa             	mov    %r15d,%edx
    3964:	89 c8                	mov    %ecx,%eax
    3966:	81 e2 00 00 00 80    	and    $0x80000000,%edx
    396c:	81 e1 ff ff 7f 00    	and    $0x7fffff,%ecx
    3972:	c1 e8 17             	shr    $0x17,%eax
    3975:	09 ca                	or     %ecx,%edx
    3977:	83 e8 7f             	sub    $0x7f,%eax
    397a:	0f be c0             	movsbl %al,%eax
    397d:	83 c0 7f             	add    $0x7f,%eax
    3980:	c1 e0 17             	shl    $0x17,%eax
    3983:	25 00 00 80 7f       	and    $0x7f800000,%eax
    3988:	09 d0                	or     %edx,%eax
    398a:	ba 04 00 00 00       	mov    $0x4,%edx
    398f:	89 44 24 30          	mov    %eax,0x30(%rsp)
    3993:	e8 18 18 00 00       	call   51b0 <memmove>
    3998:	f3 0f 10 44 24 38    	movss  0x38(%rsp),%xmm0
    399e:	e9 c3 fe ff ff       	jmp    3866 <ldexpf+0x136>
    39a3:	e8 98 d6 ff ff       	call   1040 <__stack_chk_fail@plt>
    39a8:	0f 1f 84 00 00 00 00 	nopl   0x0(%rax,%rax,1)
    39af:	00 

00000000000039b0 <ldexpl>:
    39b0:	41 56                	push   %r14
    39b2:	41 54                	push   %r12
    39b4:	55                   	push   %rbp
    39b5:	53                   	push   %rbx
    39b6:	48 83 ec 68          	sub    $0x68,%rsp
    39ba:	64 48 8b 04 25 28 00 	mov    %fs:0x28,%rax
    39c1:	00 00 
    39c3:	48 89 44 24 58       	mov    %rax,0x58(%rsp)
    39c8:	31 c0                	xor    %eax,%eax
    39ca:	db ac 24 90 00 00 00 	fldt   0x90(%rsp)
    39d1:	db e8                	fucomi %st(0),%st
    39d3:	0f 8a 01 01 00 00    	jp     3ada <ldexpl+0x12a>
    39d9:	d9 ee                	fldz
    39db:	ba 00 00 00 00       	mov    $0x0,%edx
    39e0:	df e9                	fucomip %st(1),%st
    39e2:	0f 9b c0             	setnp  %al
    39e5:	0f 45 c2             	cmovne %edx,%eax
    39e8:	84 c0                	test   %al,%al
    39ea:	0f 85 ea 00 00 00    	jne    3ada <ldexpl+0x12a>
    39f0:	f2 0f 10 05 b8 48 00 	movsd  0x48b8(%rip),%xmm0        # 82b0 <_IO_stdin_used+0x2b0>
    39f7:	00 
    39f8:	66 0f ef c9          	pxor   %xmm1,%xmm1
    39fc:	89 fb                	mov    %edi,%ebx
    39fe:	f2 0f 5e c1          	divsd  %xmm1,%xmm0
    3a02:	f2 0f 11 44 24 08    	movsd  %xmm0,0x8(%rsp)
    3a08:	dd 44 24 08          	fldl   0x8(%rsp)
    3a0c:	df e9                	fucomip %st(1),%st
    3a0e:	7a 06                	jp     3a16 <ldexpl+0x66>
    3a10:	0f 84 c4 00 00 00    	je     3ada <ldexpl+0x12a>
    3a16:	66 0f 57 05 d2 49 00 	xorpd  0x49d2(%rip),%xmm0        # 83f0 <_IO_stdin_used+0x3f0>
    3a1d:	00 
    3a1e:	ba 00 00 00 00       	mov    $0x0,%edx
    3a23:	f2 0f 11 44 24 08    	movsd  %xmm0,0x8(%rsp)
    3a29:	dd 44 24 08          	fldl   0x8(%rsp)
    3a2d:	df e9                	fucomip %st(1),%st
    3a2f:	0f 9b c0             	setnp  %al
    3a32:	0f 45 c2             	cmovne %edx,%eax
    3a35:	84 c0                	test   %al,%al
    3a37:	0f 85 9d 00 00 00    	jne    3ada <ldexpl+0x12a>
    3a3d:	85 db                	test   %ebx,%ebx
    3a3f:	0f 84 95 00 00 00    	je     3ada <ldexpl+0x12a>
    3a45:	d9 c0                	fld    %st(0)
    3a47:	db 7c 24 30          	fstpt  0x30(%rsp)
    3a4b:	48 8d 6c 24 40       	lea    0x40(%rsp),%rbp
    3a50:	ba 10 00 00 00       	mov    $0x10,%edx
    3a55:	48 8d 74 24 30       	lea    0x30(%rsp),%rsi
    3a5a:	48 89 ef             	mov    %rbp,%rdi
    3a5d:	db bc 24 90 00 00 00 	fstpt  0x90(%rsp)
    3a64:	e8 47 17 00 00       	call   51b0 <memmove>
    3a69:	0f b7 54 24 48       	movzwl 0x48(%rsp),%edx
    3a6e:	db ac 24 90 00 00 00 	fldt   0x90(%rsp)
    3a75:	48 8b 74 24 40       	mov    0x40(%rsp),%rsi
    3a7a:	89 d0                	mov    %edx,%eax
    3a7c:	25 ff 7f 00 00       	and    $0x7fff,%eax
    3a81:	8d 8c 18 01 c0 ff ff 	lea    -0x3fff(%rax,%rbx,1),%ecx
    3a88:	81 f9 ff 3f 00 00    	cmp    $0x3fff,%ecx
    3a8e:	7f 70                	jg     3b00 <ldexpl+0x150>
    3a90:	81 f9 03 c0 ff ff    	cmp    $0xffffc003,%ecx
    3a96:	0f 8c b4 00 00 00    	jl     3b50 <ldexpl+0x1a0>
    3a9c:	dd d8                	fstp   %st(0)
    3a9e:	31 c9                	xor    %ecx,%ecx
    3aa0:	01 d8                	add    %ebx,%eax
    3aa2:	48 89 74 24 30       	mov    %rsi,0x30(%rsp)
    3aa7:	66 81 e2 00 80       	and    $0x8000,%dx
    3aac:	c7 44 24 3a 00 00 00 	movl   $0x0,0x3a(%rsp)
    3ab3:	00 
    3ab4:	66 25 ff 7f          	and    $0x7fff,%ax
    3ab8:	66 89 4c 24 3e       	mov    %cx,0x3e(%rsp)
    3abd:	09 d0                	or     %edx,%eax
    3abf:	ba 10 00 00 00       	mov    $0x10,%edx
    3ac4:	48 8d 74 24 30       	lea    0x30(%rsp),%rsi
    3ac9:	48 89 ef             	mov    %rbp,%rdi
    3acc:	66 89 44 24 38       	mov    %ax,0x38(%rsp)
    3ad1:	e8 da 16 00 00       	call   51b0 <memmove>
    3ad6:	db 6c 24 40          	fldt   0x40(%rsp)
    3ada:	48 8b 44 24 58       	mov    0x58(%rsp),%rax
    3adf:	64 48 2b 04 25 28 00 	sub    %fs:0x28,%rax
    3ae6:	00 00 
    3ae8:	0f 85 1f 01 00 00    	jne    3c0d <ldexpl+0x25d>
    3aee:	48 83 c4 68          	add    $0x68,%rsp
    3af2:	5b                   	pop    %rbx
    3af3:	5d                   	pop    %rbp
    3af4:	41 5c                	pop    %r12
    3af6:	41 5e                	pop    %r14
    3af8:	c3                   	ret
    3af9:	0f 1f 80 00 00 00 00 	nopl   0x0(%rax)
    3b00:	dd d8                	fstp   %st(0)
    3b02:	83 0d 1f 75 00 00 10 	orl    $0x10,0x751f(%rip)        # b028 <_re_fe_curr_env>
    3b09:	f6 05 1c 75 00 00 10 	testb  $0x10,0x751c(%rip)        # b02c <_re_fe_curr_env+0x4>
    3b10:	75 30                	jne    3b42 <ldexpl+0x192>
    3b12:	f2 0f 10 05 5e 48 00 	movsd  0x485e(%rip),%xmm0        # 8378 <_IO_stdin_used+0x378>
    3b19:	00 
    3b1a:	f2 0f 11 44 24 10    	movsd  %xmm0,0x10(%rsp)
    3b20:	f2 0f 11 44 24 30    	movsd  %xmm0,0x30(%rsp)
    3b26:	f2 0f 10 44 24 10    	movsd  0x10(%rsp),%xmm0
    3b2c:	f2 0f 10 4c 24 30    	movsd  0x30(%rsp),%xmm1
    3b32:	f2 0f 59 c1          	mulsd  %xmm1,%xmm0
    3b36:	f2 0f 11 44 24 40    	movsd  %xmm0,0x40(%rsp)
    3b3c:	f2 0f 10 44 24 40    	movsd  0x40(%rsp),%xmm0
    3b42:	d9 05 d0 44 00 00    	flds   0x44d0(%rip)        # 8018 <_IO_stdin_used+0x18>
    3b48:	eb 90                	jmp    3ada <ldexpl+0x12a>
    3b4a:	66 0f 1f 44 00 00    	nopw   0x0(%rax,%rax,1)
    3b50:	83 0d d1 74 00 00 20 	orl    $0x20,0x74d1(%rip)        # b028 <_re_fe_curr_env>
    3b57:	f6 05 ce 74 00 00 20 	testb  $0x20,0x74ce(%rip)        # b02c <_re_fe_curr_env+0x4>
    3b5e:	75 30                	jne    3b90 <ldexpl+0x1e0>
    3b60:	f2 0f 10 05 18 48 00 	movsd  0x4818(%rip),%xmm0        # 8380 <_IO_stdin_used+0x380>
    3b67:	00 
    3b68:	f2 0f 11 44 24 18    	movsd  %xmm0,0x18(%rsp)
    3b6e:	f2 0f 11 44 24 20    	movsd  %xmm0,0x20(%rsp)
    3b74:	f2 0f 10 44 24 18    	movsd  0x18(%rsp),%xmm0
    3b7a:	f2 0f 10 4c 24 20    	movsd  0x20(%rsp),%xmm1
    3b80:	f2 0f 59 c1          	mulsd  %xmm1,%xmm0
    3b84:	f2 0f 11 44 24 28    	movsd  %xmm0,0x28(%rsp)
    3b8a:	f2 0f 10 44 24 28    	movsd  0x28(%rsp),%xmm0
    3b90:	ba 10 00 00 00       	mov    $0x10,%edx
    3b95:	48 8d 74 24 30       	lea    0x30(%rsp),%rsi
    3b9a:	48 89 ef             	mov    %rbp,%rdi
    3b9d:	db bc 24 90 00 00 00 	fstpt  0x90(%rsp)
    3ba4:	48 c7 44 24 30 00 00 	movq   $0x0,0x30(%rsp)
    3bab:	00 00 
    3bad:	c7 44 24 38 00 00 00 	movl   $0x0,0x38(%rsp)
    3bb4:	00 
    3bb5:	e8 f6 15 00 00       	call   51b0 <memmove>
    3bba:	db ac 24 90 00 00 00 	fldt   0x90(%rsp)
    3bc1:	48 8d 74 24 30       	lea    0x30(%rsp),%rsi
    3bc6:	48 89 ef             	mov    %rbp,%rdi
    3bc9:	ba 10 00 00 00       	mov    $0x10,%edx
    3bce:	44 0f b7 74 24 48    	movzwl 0x48(%rsp),%r14d
    3bd4:	48 8b 5c 24 40       	mov    0x40(%rsp),%rbx
    3bd9:	db 7c 24 30          	fstpt  0x30(%rsp)
    3bdd:	66 41 81 e6 ff 7f    	and    $0x7fff,%r14w
    3be3:	e8 c8 15 00 00       	call   51b0 <memmove>
    3be8:	0f b7 44 24 48       	movzwl 0x48(%rsp),%eax
    3bed:	31 f6                	xor    %esi,%esi
    3bef:	c7 44 24 3a 00 00 00 	movl   $0x0,0x3a(%rsp)
    3bf6:	00 
    3bf7:	66 25 00 80          	and    $0x8000,%ax
    3bfb:	66 89 74 24 3e       	mov    %si,0x3e(%rsp)
    3c00:	48 89 5c 24 30       	mov    %rbx,0x30(%rsp)
    3c05:	44 09 f0             	or     %r14d,%eax
    3c08:	e9 b2 fe ff ff       	jmp    3abf <ldexpl+0x10f>
    3c0d:	dd d8                	fstp   %st(0)
    3c0f:	e8 2c d4 ff ff       	call   1040 <__stack_chk_fail@plt>
    3c14:	66 66 2e 0f 1f 84 00 	data16 cs nopw 0x0(%rax,%rax,1)
    3c1b:	00 00 00 00 
    3c1f:	90                   	nop

0000000000003c20 <frexp>:
    3c20:	41 54                	push   %r12
    3c22:	66 0f ef c9          	pxor   %xmm1,%xmm1
    3c26:	55                   	push   %rbp
    3c27:	53                   	push   %rbx
    3c28:	48 83 ec 20          	sub    $0x20,%rsp
    3c2c:	66 0f 2e c1          	ucomisd %xmm1,%xmm0
    3c30:	64 48 8b 1c 25 28 00 	mov    %fs:0x28,%rbx
    3c37:	00 00 
    3c39:	48 89 5c 24 18       	mov    %rbx,0x18(%rsp)
    3c3e:	48 89 fb             	mov    %rdi,%rbx
    3c41:	7a 06                	jp     3c49 <frexp+0x29>
    3c43:	0f 84 97 00 00 00    	je     3ce0 <frexp+0xc0>
    3c49:	48 8d 6c 24 10       	lea    0x10(%rsp),%rbp
    3c4e:	ba 08 00 00 00       	mov    $0x8,%edx
    3c53:	48 8d 74 24 08       	lea    0x8(%rsp),%rsi
    3c58:	f2 0f 11 44 24 08    	movsd  %xmm0,0x8(%rsp)
    3c5e:	48 89 ef             	mov    %rbp,%rdi
    3c61:	e8 4a 15 00 00       	call   51b0 <memmove>
    3c66:	48 8b 54 24 10       	mov    0x10(%rsp),%rdx
    3c6b:	48 85 db             	test   %rbx,%rbx
    3c6e:	74 18                	je     3c88 <frexp+0x68>
    3c70:	48 89 d0             	mov    %rdx,%rax
    3c73:	48 c1 e8 34          	shr    $0x34,%rax
    3c77:	c1 e0 05             	shl    $0x5,%eax
    3c7a:	66 2d e0 7f          	sub    $0x7fe0,%ax
    3c7e:	66 c1 f8 05          	sar    $0x5,%ax
    3c82:	98                   	cwtl
    3c83:	83 c0 01             	add    $0x1,%eax
    3c86:	89 03                	mov    %eax,(%rbx)
    3c88:	48 b8 ff ff ff ff ff 	movabs $0x800fffffffffffff,%rax
    3c8f:	ff 0f 80 
    3c92:	48 8d 74 24 08       	lea    0x8(%rsp),%rsi
    3c97:	48 89 ef             	mov    %rbp,%rdi
    3c9a:	48 21 c2             	and    %rax,%rdx
    3c9d:	48 b8 00 00 00 00 00 	movabs $0x3fe0000000000000,%rax
    3ca4:	00 e0 3f 
    3ca7:	48 09 c2             	or     %rax,%rdx
    3caa:	48 89 54 24 08       	mov    %rdx,0x8(%rsp)
    3caf:	ba 08 00 00 00       	mov    $0x8,%edx
    3cb4:	e8 f7 14 00 00       	call   51b0 <memmove>
    3cb9:	f2 0f 10 44 24 10    	movsd  0x10(%rsp),%xmm0
    3cbf:	48 8b 44 24 18       	mov    0x18(%rsp),%rax
    3cc4:	64 48 2b 04 25 28 00 	sub    %fs:0x28,%rax
    3ccb:	00 00 
    3ccd:	75 22                	jne    3cf1 <frexp+0xd1>
    3ccf:	48 83 c4 20          	add    $0x20,%rsp
    3cd3:	5b                   	pop    %rbx
    3cd4:	5d                   	pop    %rbp
    3cd5:	41 5c                	pop    %r12
    3cd7:	c3                   	ret
    3cd8:	0f 1f 84 00 00 00 00 	nopl   0x0(%rax,%rax,1)
    3cdf:	00 
    3ce0:	48 85 db             	test   %rbx,%rbx
    3ce3:	74 06                	je     3ceb <frexp+0xcb>
    3ce5:	c7 03 00 00 00 00    	movl   $0x0,(%rbx)
    3ceb:	66 0f ef c0          	pxor   %xmm0,%xmm0
    3cef:	eb ce                	jmp    3cbf <frexp+0x9f>
    3cf1:	e8 4a d3 ff ff       	call   1040 <__stack_chk_fail@plt>
    3cf6:	66 2e 0f 1f 84 00 00 	cs nopw 0x0(%rax,%rax,1)
    3cfd:	00 00 00 

0000000000003d00 <exp>:
    3d00:	48 83 ec 18          	sub    $0x18,%rsp
    3d04:	f2 0f 10 0d 9c 46 00 	movsd  0x469c(%rip),%xmm1        # 83a8 <_IO_stdin_used+0x3a8>
    3d0b:	00 
    3d0c:	64 48 8b 04 25 28 00 	mov    %fs:0x28,%rax
    3d13:	00 00 
    3d15:	48 89 44 24 08       	mov    %rax,0x8(%rsp)
    3d1a:	31 c0                	xor    %eax,%eax
    3d1c:	66 0f 2f c8          	comisd %xmm0,%xmm1
    3d20:	0f 87 a2 00 00 00    	ja     3dc8 <exp+0xc8>
    3d26:	48 8d 7c 24 04       	lea    0x4(%rsp),%rdi
    3d2b:	c7 44 24 04 00 00 00 	movl   $0x0,0x4(%rsp)
    3d32:	00 
    3d33:	e8 e8 fe ff ff       	call   3c20 <frexp>
    3d38:	f2 0f 10 0d 70 45 00 	movsd  0x4570(%rip),%xmm1        # 82b0 <_IO_stdin_used+0x2b0>
    3d3f:	00 
    3d40:	b8 01 00 00 00       	mov    $0x1,%eax
    3d45:	66 0f 28 e0          	movapd %xmm0,%xmm4
    3d49:	66 0f 28 c1          	movapd %xmm1,%xmm0
    3d4d:	66 66 2e 0f 1f 84 00 	data16 cs nopw 0x0(%rax,%rax,1)
    3d54:	00 00 00 00 
    3d58:	0f 1f 84 00 00 00 00 	nopl   0x0(%rax,%rax,1)
    3d5f:	00 
    3d60:	66 0f ef db          	pxor   %xmm3,%xmm3
    3d64:	66 0f 28 d4          	movapd %xmm4,%xmm2
    3d68:	f2 0f 2a d8          	cvtsi2sd %eax,%xmm3
    3d6c:	f2 0f 5e d3          	divsd  %xmm3,%xmm2
    3d70:	83 c0 01             	add    $0x1,%eax
    3d73:	f2 0f 59 c2          	mulsd  %xmm2,%xmm0
    3d77:	f2 0f 58 c8          	addsd  %xmm0,%xmm1
    3d7b:	83 f8 21             	cmp    $0x21,%eax
    3d7e:	75 e0                	jne    3d60 <exp+0x60>
    3d80:	8b 54 24 04          	mov    0x4(%rsp),%edx
    3d84:	85 d2                	test   %edx,%edx
    3d86:	7e 27                	jle    3daf <exp+0xaf>
    3d88:	31 c0                	xor    %eax,%eax
    3d8a:	f6 c2 01             	test   $0x1,%dl
    3d8d:	74 11                	je     3da0 <exp+0xa0>
    3d8f:	f2 0f 59 c9          	mulsd  %xmm1,%xmm1
    3d93:	b8 01 00 00 00       	mov    $0x1,%eax
    3d98:	83 fa 01             	cmp    $0x1,%edx
    3d9b:	74 12                	je     3daf <exp+0xaf>
    3d9d:	0f 1f 00             	nopl   (%rax)
    3da0:	f2 0f 59 c9          	mulsd  %xmm1,%xmm1
    3da4:	83 c0 02             	add    $0x2,%eax
    3da7:	f2 0f 59 c9          	mulsd  %xmm1,%xmm1
    3dab:	39 c2                	cmp    %eax,%edx
    3dad:	75 f1                	jne    3da0 <exp+0xa0>
    3daf:	48 8b 44 24 08       	mov    0x8(%rsp),%rax
    3db4:	64 48 2b 04 25 28 00 	sub    %fs:0x28,%rax
    3dbb:	00 00 
    3dbd:	75 0f                	jne    3dce <exp+0xce>
    3dbf:	66 0f 28 c1          	movapd %xmm1,%xmm0
    3dc3:	48 83 c4 18          	add    $0x18,%rsp
    3dc7:	c3                   	ret
    3dc8:	66 0f ef c9          	pxor   %xmm1,%xmm1
    3dcc:	eb e1                	jmp    3daf <exp+0xaf>
    3dce:	e8 6d d2 ff ff       	call   1040 <__stack_chk_fail@plt>
    3dd3:	66 66 2e 0f 1f 84 00 	data16 cs nopw 0x0(%rax,%rax,1)
    3dda:	00 00 00 00 
    3dde:	66 90                	xchg   %ax,%ax

0000000000003de0 <expf>:
    3de0:	48 83 ec 18          	sub    $0x18,%rsp
    3de4:	f3 0f 10 0d 34 42 00 	movss  0x4234(%rip),%xmm1        # 8020 <_IO_stdin_used+0x20>
    3deb:	00 
    3dec:	64 48 8b 04 25 28 00 	mov    %fs:0x28,%rax
    3df3:	00 00 
    3df5:	48 89 44 24 08       	mov    %rax,0x8(%rsp)
    3dfa:	31 c0                	xor    %eax,%eax
    3dfc:	0f 2f c8             	comiss %xmm0,%xmm1
    3dff:	0f 87 a3 00 00 00    	ja     3ea8 <expf+0xc8>
    3e05:	48 8d 7c 24 04       	lea    0x4(%rsp),%rdi
    3e0a:	c7 44 24 04 00 00 00 	movl   $0x0,0x4(%rsp)
    3e11:	00 
    3e12:	f3 0f 5a c0          	cvtss2sd %xmm0,%xmm0
    3e16:	e8 05 fe ff ff       	call   3c20 <frexp>
    3e1b:	b8 01 00 00 00       	mov    $0x1,%eax
    3e20:	66 0f 28 e0          	movapd %xmm0,%xmm4
    3e24:	f2 0f 10 05 84 44 00 	movsd  0x4484(%rip),%xmm0        # 82b0 <_IO_stdin_used+0x2b0>
    3e2b:	00 
    3e2c:	66 0f 28 c8          	movapd %xmm0,%xmm1
    3e30:	66 66 2e 0f 1f 84 00 	data16 cs nopw 0x0(%rax,%rax,1)
    3e37:	00 00 00 00 
    3e3b:	0f 1f 44 00 00       	nopl   0x0(%rax,%rax,1)
    3e40:	66 0f ef db          	pxor   %xmm3,%xmm3
    3e44:	66 0f 28 d4          	movapd %xmm4,%xmm2
    3e48:	f2 0f 2a d8          	cvtsi2sd %eax,%xmm3
    3e4c:	f2 0f 5e d3          	divsd  %xmm3,%xmm2
    3e50:	83 c0 01             	add    $0x1,%eax
    3e53:	f2 0f 59 ca          	mulsd  %xmm2,%xmm1
    3e57:	f2 0f 58 c1          	addsd  %xmm1,%xmm0
    3e5b:	83 f8 21             	cmp    $0x21,%eax
    3e5e:	75 e0                	jne    3e40 <expf+0x60>
    3e60:	8b 54 24 04          	mov    0x4(%rsp),%edx
    3e64:	85 d2                	test   %edx,%edx
    3e66:	7e 27                	jle    3e8f <expf+0xaf>
    3e68:	31 c0                	xor    %eax,%eax
    3e6a:	f6 c2 01             	test   $0x1,%dl
    3e6d:	74 11                	je     3e80 <expf+0xa0>
    3e6f:	f2 0f 59 c0          	mulsd  %xmm0,%xmm0
    3e73:	b8 01 00 00 00       	mov    $0x1,%eax
    3e78:	83 fa 01             	cmp    $0x1,%edx
    3e7b:	74 12                	je     3e8f <expf+0xaf>
    3e7d:	0f 1f 00             	nopl   (%rax)
    3e80:	f2 0f 59 c0          	mulsd  %xmm0,%xmm0
    3e84:	83 c0 02             	add    $0x2,%eax
    3e87:	f2 0f 59 c0          	mulsd  %xmm0,%xmm0
    3e8b:	39 c2                	cmp    %eax,%edx
    3e8d:	75 f1                	jne    3e80 <expf+0xa0>
    3e8f:	f2 0f 5a c0          	cvtsd2ss %xmm0,%xmm0
    3e93:	48 8b 44 24 08       	mov    0x8(%rsp),%rax
    3e98:	64 48 2b 04 25 28 00 	sub    %fs:0x28,%rax
    3e9f:	00 00 
    3ea1:	75 0b                	jne    3eae <expf+0xce>
    3ea3:	48 83 c4 18          	add    $0x18,%rsp
    3ea7:	c3                   	ret
    3ea8:	66 0f ef c0          	pxor   %xmm0,%xmm0
    3eac:	eb e5                	jmp    3e93 <expf+0xb3>
    3eae:	e8 8d d1 ff ff       	call   1040 <__stack_chk_fail@plt>
    3eb3:	66 66 2e 0f 1f 84 00 	data16 cs nopw 0x0(%rax,%rax,1)
    3eba:	00 00 00 00 
    3ebe:	66 90                	xchg   %ax,%ax

0000000000003ec0 <frexpf>:
    3ec0:	41 54                	push   %r12
    3ec2:	66 0f ef c9          	pxor   %xmm1,%xmm1
    3ec6:	55                   	push   %rbp
    3ec7:	53                   	push   %rbx
    3ec8:	48 83 ec 10          	sub    $0x10,%rsp
    3ecc:	0f 2e c1             	ucomiss %xmm1,%xmm0
    3ecf:	64 48 8b 1c 25 28 00 	mov    %fs:0x28,%rbx
    3ed6:	00 00 
    3ed8:	48 89 5c 24 08       	mov    %rbx,0x8(%rsp)
    3edd:	48 89 fb             	mov    %rdi,%rbx
    3ee0:	7a 02                	jp     3ee4 <frexpf+0x24>
    3ee2:	74 74                	je     3f58 <frexpf+0x98>
    3ee4:	48 8d 6c 24 04       	lea    0x4(%rsp),%rbp
    3ee9:	ba 04 00 00 00       	mov    $0x4,%edx
    3eee:	48 89 e6             	mov    %rsp,%rsi
    3ef1:	f3 0f 11 04 24       	movss  %xmm0,(%rsp)
    3ef6:	48 89 ef             	mov    %rbp,%rdi
    3ef9:	e8 b2 12 00 00       	call   51b0 <memmove>
    3efe:	8b 54 24 04          	mov    0x4(%rsp),%edx
    3f02:	48 85 db             	test   %rbx,%rbx
    3f05:	74 10                	je     3f17 <frexpf+0x57>
    3f07:	89 d0                	mov    %edx,%eax
    3f09:	c1 e8 17             	shr    $0x17,%eax
    3f0c:	83 e8 7f             	sub    $0x7f,%eax
    3f0f:	0f be c0             	movsbl %al,%eax
    3f12:	83 c0 01             	add    $0x1,%eax
    3f15:	89 03                	mov    %eax,(%rbx)
    3f17:	81 e2 ff ff 7f 80    	and    $0x807fffff,%edx
    3f1d:	48 89 e6             	mov    %rsp,%rsi
    3f20:	48 89 ef             	mov    %rbp,%rdi
    3f23:	81 ca 00 00 00 3f    	or     $0x3f000000,%edx
    3f29:	89 14 24             	mov    %edx,(%rsp)
    3f2c:	ba 04 00 00 00       	mov    $0x4,%edx
    3f31:	e8 7a 12 00 00       	call   51b0 <memmove>
    3f36:	f3 0f 10 44 24 04    	movss  0x4(%rsp),%xmm0
    3f3c:	48 8b 44 24 08       	mov    0x8(%rsp),%rax
    3f41:	64 48 2b 04 25 28 00 	sub    %fs:0x28,%rax
    3f48:	00 00 
    3f4a:	75 1d                	jne    3f69 <frexpf+0xa9>
    3f4c:	48 83 c4 10          	add    $0x10,%rsp
    3f50:	5b                   	pop    %rbx
    3f51:	5d                   	pop    %rbp
    3f52:	41 5c                	pop    %r12
    3f54:	c3                   	ret
    3f55:	0f 1f 00             	nopl   (%rax)
    3f58:	48 85 db             	test   %rbx,%rbx
    3f5b:	74 06                	je     3f63 <frexpf+0xa3>
    3f5d:	c7 03 00 00 00 00    	movl   $0x0,(%rbx)
    3f63:	66 0f ef c0          	pxor   %xmm0,%xmm0
    3f67:	eb d3                	jmp    3f3c <frexpf+0x7c>
    3f69:	e8 d2 d0 ff ff       	call   1040 <__stack_chk_fail@plt>
    3f6e:	66 90                	xchg   %ax,%ax

0000000000003f70 <frexpl>:
    3f70:	41 54                	push   %r12
    3f72:	55                   	push   %rbp
    3f73:	53                   	push   %rbx
    3f74:	48 83 ec 30          	sub    $0x30,%rsp
    3f78:	64 48 8b 1c 25 28 00 	mov    %fs:0x28,%rbx
    3f7f:	00 00 
    3f81:	48 89 5c 24 28       	mov    %rbx,0x28(%rsp)
    3f86:	48 89 fb             	mov    %rdi,%rbx
    3f89:	d9 ee                	fldz
    3f8b:	db 6c 24 50          	fldt   0x50(%rsp)
    3f8f:	db e9                	fucomi %st(1),%st
    3f91:	dd d9                	fstp   %st(1)
    3f93:	7a 06                	jp     3f9b <frexpl+0x2b>
    3f95:	0f 84 85 00 00 00    	je     4020 <frexpl+0xb0>
    3f9b:	48 8d 6c 24 10       	lea    0x10(%rsp),%rbp
    3fa0:	ba 10 00 00 00       	mov    $0x10,%edx
    3fa5:	48 89 e6             	mov    %rsp,%rsi
    3fa8:	db 3c 24             	fstpt  (%rsp)
    3fab:	48 89 ef             	mov    %rbp,%rdi
    3fae:	e8 fd 11 00 00       	call   51b0 <memmove>
    3fb3:	0f b7 44 24 18       	movzwl 0x18(%rsp),%eax
    3fb8:	48 8b 4c 24 10       	mov    0x10(%rsp),%rcx
    3fbd:	48 85 db             	test   %rbx,%rbx
    3fc0:	74 10                	je     3fd2 <frexpl+0x62>
    3fc2:	89 c2                	mov    %eax,%edx
    3fc4:	81 e2 ff 7f 00 00    	and    $0x7fff,%edx
    3fca:	81 ea fe 3f 00 00    	sub    $0x3ffe,%edx
    3fd0:	89 13                	mov    %edx,(%rbx)
    3fd2:	31 d2                	xor    %edx,%edx
    3fd4:	66 25 00 80          	and    $0x8000,%ax
    3fd8:	48 89 e6             	mov    %rsp,%rsi
    3fdb:	48 89 ef             	mov    %rbp,%rdi
    3fde:	66 89 54 24 0e       	mov    %dx,0xe(%rsp)
    3fe3:	66 0d fe 3f          	or     $0x3ffe,%ax
    3fe7:	ba 10 00 00 00       	mov    $0x10,%edx
    3fec:	c7 44 24 0a 00 00 00 	movl   $0x0,0xa(%rsp)
    3ff3:	00 
    3ff4:	48 89 0c 24          	mov    %rcx,(%rsp)
    3ff8:	66 89 44 24 08       	mov    %ax,0x8(%rsp)
    3ffd:	e8 ae 11 00 00       	call   51b0 <memmove>
    4002:	db 6c 24 10          	fldt   0x10(%rsp)
    4006:	48 8b 44 24 28       	mov    0x28(%rsp),%rax
    400b:	64 48 2b 04 25 28 00 	sub    %fs:0x28,%rax
    4012:	00 00 
    4014:	75 1b                	jne    4031 <frexpl+0xc1>
    4016:	48 83 c4 30          	add    $0x30,%rsp
    401a:	5b                   	pop    %rbx
    401b:	5d                   	pop    %rbp
    401c:	41 5c                	pop    %r12
    401e:	c3                   	ret
    401f:	90                   	nop
    4020:	dd d8                	fstp   %st(0)
    4022:	48 85 db             	test   %rbx,%rbx
    4025:	74 06                	je     402d <frexpl+0xbd>
    4027:	c7 03 00 00 00 00    	movl   $0x0,(%rbx)
    402d:	d9 ee                	fldz
    402f:	eb d5                	jmp    4006 <frexpl+0x96>
    4031:	dd d8                	fstp   %st(0)
    4033:	e8 08 d0 ff ff       	call   1040 <__stack_chk_fail@plt>
    4038:	0f 1f 84 00 00 00 00 	nopl   0x0(%rax,%rax,1)
    403f:	00 

0000000000004040 <log>:
    4040:	41 57                	push   %r15
    4042:	66 0f ef c9          	pxor   %xmm1,%xmm1
    4046:	41 56                	push   %r14
    4048:	53                   	push   %rbx
    4049:	48 83 ec 20          	sub    $0x20,%rsp
    404d:	64 48 8b 04 25 28 00 	mov    %fs:0x28,%rax
    4054:	00 00 
    4056:	48 89 44 24 18       	mov    %rax,0x18(%rsp)
    405b:	31 c0                	xor    %eax,%eax
    405d:	66 0f 2f c8          	comisd %xmm0,%xmm1
    4061:	0f 87 b1 01 00 00    	ja     4218 <log+0x1d8>
    4067:	66 0f 2e c1          	ucomisd %xmm1,%xmm0
    406b:	7a 06                	jp     4073 <log+0x33>
    406d:	0f 84 b5 01 00 00    	je     4228 <log+0x1e8>
    4073:	f2 0f 10 0d 35 42 00 	movsd  0x4235(%rip),%xmm1        # 82b0 <_IO_stdin_used+0x2b0>
    407a:	00 
    407b:	66 0f ef d2          	pxor   %xmm2,%xmm2
    407f:	f2 0f 5e ca          	divsd  %xmm2,%xmm1
    4083:	66 0f 2e c8          	ucomisd %xmm0,%xmm1
    4087:	7a 06                	jp     408f <log+0x4f>
    4089:	0f 84 d1 00 00 00    	je     4160 <log+0x120>
    408f:	66 0f 57 0d 59 43 00 	xorpd  0x4359(%rip),%xmm1        # 83f0 <_IO_stdin_used+0x3f0>
    4096:	00 
    4097:	66 0f 2e c1          	ucomisd %xmm1,%xmm0
    409b:	7a 06                	jp     40a3 <log+0x63>
    409d:	0f 84 bd 00 00 00    	je     4160 <log+0x120>
    40a3:	48 8d 7c 24 10       	lea    0x10(%rsp),%rdi
    40a8:	c7 44 24 10 00 00 00 	movl   $0x0,0x10(%rsp)
    40af:	00 
    40b0:	e8 6b fb ff ff       	call   3c20 <frexp>
    40b5:	f2 0f 10 2d f3 41 00 	movsd  0x41f3(%rip),%xmm5        # 82b0 <_IO_stdin_used+0x2b0>
    40bc:	00 
    40bd:	8b 44 24 10          	mov    0x10(%rsp),%eax
    40c1:	f2 0f 58 c0          	addsd  %xmm0,%xmm0
    40c5:	f2 0f 10 0d e3 42 00 	movsd  0x42e3(%rip),%xmm1        # 83b0 <_IO_stdin_used+0x3b0>
    40cc:	00 
    40cd:	8d 50 ff             	lea    -0x1(%rax),%edx
    40d0:	b8 0f 00 00 00       	mov    $0xf,%eax
    40d5:	66 0f 28 e0          	movapd %xmm0,%xmm4
    40d9:	f2 0f 58 c5          	addsd  %xmm5,%xmm0
    40dd:	f2 0f 5c e5          	subsd  %xmm5,%xmm4
    40e1:	f2 0f 5e e0          	divsd  %xmm0,%xmm4
    40e5:	66 0f 28 c4          	movapd %xmm4,%xmm0
    40e9:	f2 0f 59 c4          	mulsd  %xmm4,%xmm0
    40ed:	66 66 2e 0f 1f 84 00 	data16 cs nopw 0x0(%rax,%rax,1)
    40f4:	00 00 00 00 
    40f8:	0f 1f 84 00 00 00 00 	nopl   0x0(%rax,%rax,1)
    40ff:	00 
    4100:	f2 0f 59 c8          	mulsd  %xmm0,%xmm1
    4104:	66 0f ef db          	pxor   %xmm3,%xmm3
    4108:	66 0f 28 d5          	movapd %xmm5,%xmm2
    410c:	f2 0f 2a d8          	cvtsi2sd %eax,%xmm3
    4110:	f2 0f 5e d3          	divsd  %xmm3,%xmm2
    4114:	83 e8 02             	sub    $0x2,%eax
    4117:	f2 0f 58 ca          	addsd  %xmm2,%xmm1
    411b:	83 f8 ff             	cmp    $0xffffffff,%eax
    411e:	75 e0                	jne    4100 <log+0xc0>
    4120:	f2 0f 58 e4          	addsd  %xmm4,%xmm4
    4124:	66 0f 28 c4          	movapd %xmm4,%xmm0
    4128:	f2 0f 59 c1          	mulsd  %xmm1,%xmm0
    412c:	66 0f ef c9          	pxor   %xmm1,%xmm1
    4130:	f2 0f 2a ca          	cvtsi2sd %edx,%xmm1
    4134:	f2 0f 59 0d 84 42 00 	mulsd  0x4284(%rip),%xmm1        # 83c0 <_IO_stdin_used+0x3c0>
    413b:	00 
    413c:	f2 0f 58 c1          	addsd  %xmm1,%xmm0
    4140:	48 8b 44 24 18       	mov    0x18(%rsp),%rax
    4145:	64 48 2b 04 25 28 00 	sub    %fs:0x28,%rax
    414c:	00 00 
    414e:	0f 85 e1 00 00 00    	jne    4235 <log+0x1f5>
    4154:	48 83 c4 20          	add    $0x20,%rsp
    4158:	5b                   	pop    %rbx
    4159:	41 5e                	pop    %r14
    415b:	41 5f                	pop    %r15
    415d:	c3                   	ret
    415e:	66 90                	xchg   %ax,%ax
    4160:	ba 08 00 00 00       	mov    $0x8,%edx
    4165:	48 8d 74 24 08       	lea    0x8(%rsp),%rsi
    416a:	48 8d 7c 24 10       	lea    0x10(%rsp),%rdi
    416f:	f2 0f 11 44 24 08    	movsd  %xmm0,0x8(%rsp)
    4175:	e8 36 10 00 00       	call   51b0 <memmove>
    417a:	ba 08 00 00 00       	mov    $0x8,%edx
    417f:	48 8d 74 24 08       	lea    0x8(%rsp),%rsi
    4184:	48 8b 05 0d 42 00 00 	mov    0x420d(%rip),%rax        # 8398 <_IO_stdin_used+0x398>
    418b:	48 8d 7c 24 10       	lea    0x10(%rsp),%rdi
    4190:	4c 8b 7c 24 10       	mov    0x10(%rsp),%r15
    4195:	48 89 44 24 08       	mov    %rax,0x8(%rsp)
    419a:	e8 11 10 00 00       	call   51b0 <memmove>
    419f:	48 8b 4c 24 10       	mov    0x10(%rsp),%rcx
    41a4:	48 8d 7c 24 10       	lea    0x10(%rsp),%rdi
    41a9:	48 ba 00 00 00 00 00 	movabs $0x7ff0000000000000,%rdx
    41b0:	00 f0 7f 
    41b3:	48 be ff ff ff ff ff 	movabs $0xfffffffffffff,%rsi
    41ba:	ff 0f 00 
    41bd:	48 89 c8             	mov    %rcx,%rax
    41c0:	48 21 f1             	and    %rsi,%rcx
    41c3:	48 8d 74 24 08       	lea    0x8(%rsp),%rsi
    41c8:	48 c1 e8 34          	shr    $0x34,%rax
    41cc:	c1 e0 05             	shl    $0x5,%eax
    41cf:	66 2d e0 7f          	sub    $0x7fe0,%ax
    41d3:	66 c1 f8 05          	sar    $0x5,%ax
    41d7:	98                   	cwtl
    41d8:	05 ff 03 00 00       	add    $0x3ff,%eax
    41dd:	48 c1 e0 34          	shl    $0x34,%rax
    41e1:	48 21 d0             	and    %rdx,%rax
    41e4:	48 ba 00 00 00 00 00 	movabs $0x8000000000000000,%rdx
    41eb:	00 00 80 
    41ee:	4c 21 fa             	and    %r15,%rdx
    41f1:	48 09 ca             	or     %rcx,%rdx
    41f4:	48 09 d0             	or     %rdx,%rax
    41f7:	ba 08 00 00 00       	mov    $0x8,%edx
    41fc:	48 89 44 24 08       	mov    %rax,0x8(%rsp)
    4201:	e8 aa 0f 00 00       	call   51b0 <memmove>
    4206:	f2 0f 10 44 24 10    	movsd  0x10(%rsp),%xmm0
    420c:	e9 2f ff ff ff       	jmp    4140 <log+0x100>
    4211:	0f 1f 80 00 00 00 00 	nopl   0x0(%rax)
    4218:	f2 0f 10 05 68 41 00 	movsd  0x4168(%rip),%xmm0        # 8388 <_IO_stdin_used+0x388>
    421f:	00 
    4220:	e9 1b ff ff ff       	jmp    4140 <log+0x100>
    4225:	0f 1f 00             	nopl   (%rax)
    4228:	f2 0f 10 05 88 41 00 	movsd  0x4188(%rip),%xmm0        # 83b8 <_IO_stdin_used+0x3b8>
    422f:	00 
    4230:	e9 0b ff ff ff       	jmp    4140 <log+0x100>
    4235:	e8 06 ce ff ff       	call   1040 <__stack_chk_fail@plt>
    423a:	66 0f 1f 44 00 00    	nopw   0x0(%rax,%rax,1)

0000000000004240 <pow>:
    4240:	48 83 ec 18          	sub    $0x18,%rsp
    4244:	f2 0f 11 4c 24 08    	movsd  %xmm1,0x8(%rsp)
    424a:	e8 f1 fd ff ff       	call   4040 <log>
    424f:	f2 0f 59 44 24 08    	mulsd  0x8(%rsp),%xmm0
    4255:	48 83 c4 18          	add    $0x18,%rsp
    4259:	e9 a2 fa ff ff       	jmp    3d00 <exp>
    425e:	66 90                	xchg   %ax,%ax

0000000000004260 <logf>:
    4260:	41 57                	push   %r15
    4262:	0f 28 c8             	movaps %xmm0,%xmm1
    4265:	66 0f ef c0          	pxor   %xmm0,%xmm0
    4269:	41 56                	push   %r14
    426b:	53                   	push   %rbx
    426c:	48 83 ec 10          	sub    $0x10,%rsp
    4270:	64 48 8b 04 25 28 00 	mov    %fs:0x28,%rax
    4277:	00 00 
    4279:	48 89 44 24 08       	mov    %rax,0x8(%rsp)
    427e:	31 c0                	xor    %eax,%eax
    4280:	0f 2f c1             	comiss %xmm1,%xmm0
    4283:	0f 87 87 01 00 00    	ja     4410 <logf+0x1b0>
    4289:	0f 2e c8             	ucomiss %xmm0,%xmm1
    428c:	7a 06                	jp     4294 <logf+0x34>
    428e:	0f 84 8c 01 00 00    	je     4420 <logf+0x1c0>
    4294:	f2 0f 10 05 14 40 00 	movsd  0x4014(%rip),%xmm0        # 82b0 <_IO_stdin_used+0x2b0>
    429b:	00 
    429c:	66 0f ef db          	pxor   %xmm3,%xmm3
    42a0:	66 0f ef d2          	pxor   %xmm2,%xmm2
    42a4:	f3 0f 5a d1          	cvtss2sd %xmm1,%xmm2
    42a8:	f2 0f 5e c3          	divsd  %xmm3,%xmm0
    42ac:	66 0f 2e d0          	ucomisd %xmm0,%xmm2
    42b0:	7a 06                	jp     42b8 <logf+0x58>
    42b2:	0f 84 d0 00 00 00    	je     4388 <logf+0x128>
    42b8:	66 0f 57 05 30 41 00 	xorpd  0x4130(%rip),%xmm0        # 83f0 <_IO_stdin_used+0x3f0>
    42bf:	00 
    42c0:	66 0f 2e d0          	ucomisd %xmm0,%xmm2
    42c4:	7a 06                	jp     42cc <logf+0x6c>
    42c6:	0f 84 bc 00 00 00    	je     4388 <logf+0x128>
    42cc:	0f 28 c1             	movaps %xmm1,%xmm0
    42cf:	48 8d 7c 24 04       	lea    0x4(%rsp),%rdi
    42d4:	c7 44 24 04 00 00 00 	movl   $0x0,0x4(%rsp)
    42db:	00 
    42dc:	e8 df fb ff ff       	call   3ec0 <frexpf>
    42e1:	f3 0f 10 1d 1f 3d 00 	movss  0x3d1f(%rip),%xmm3        # 8008 <_IO_stdin_used+0x8>
    42e8:	00 
    42e9:	8b 44 24 04          	mov    0x4(%rsp),%eax
    42ed:	f3 0f 58 c0          	addss  %xmm0,%xmm0
    42f1:	f3 0f 10 0d 33 3d 00 	movss  0x3d33(%rip),%xmm1        # 802c <_IO_stdin_used+0x2c>
    42f8:	00 
    42f9:	83 e8 01             	sub    $0x1,%eax
    42fc:	0f 28 d0             	movaps %xmm0,%xmm2
    42ff:	f3 0f 58 c3          	addss  %xmm3,%xmm0
    4303:	f3 0f 5c d3          	subss  %xmm3,%xmm2
    4307:	f3 0f 5e d0          	divss  %xmm0,%xmm2
    430b:	0f 28 c2             	movaps %xmm2,%xmm0
    430e:	f3 0f 59 c2          	mulss  %xmm2,%xmm0
    4312:	f3 0f 58 d2          	addss  %xmm2,%xmm2
    4316:	f3 0f 59 c8          	mulss  %xmm0,%xmm1
    431a:	f3 0f 58 0d 0e 3d 00 	addss  0x3d0e(%rip),%xmm1        # 8030 <_IO_stdin_used+0x30>
    4321:	00 
    4322:	f3 0f 59 c8          	mulss  %xmm0,%xmm1
    4326:	f3 0f 58 0d 06 3d 00 	addss  0x3d06(%rip),%xmm1        # 8034 <_IO_stdin_used+0x34>
    432d:	00 
    432e:	f3 0f 59 c8          	mulss  %xmm0,%xmm1
    4332:	f3 0f 58 0d fe 3c 00 	addss  0x3cfe(%rip),%xmm1        # 8038 <_IO_stdin_used+0x38>
    4339:	00 
    433a:	f3 0f 59 c8          	mulss  %xmm0,%xmm1
    433e:	66 0f ef c0          	pxor   %xmm0,%xmm0
    4342:	f3 0f 2a c0          	cvtsi2ss %eax,%xmm0
    4346:	f3 0f 58 cb          	addss  %xmm3,%xmm1
    434a:	f3 0f 5a c0          	cvtss2sd %xmm0,%xmm0
    434e:	f2 0f 59 05 6a 40 00 	mulsd  0x406a(%rip),%xmm0        # 83c0 <_IO_stdin_used+0x3c0>
    4355:	00 
    4356:	f3 0f 59 d1          	mulss  %xmm1,%xmm2
    435a:	f3 0f 5a d2          	cvtss2sd %xmm2,%xmm2
    435e:	f2 0f 58 c2          	addsd  %xmm2,%xmm0
    4362:	f2 0f 5a c0          	cvtsd2ss %xmm0,%xmm0
    4366:	48 8b 44 24 08       	mov    0x8(%rsp),%rax
    436b:	64 48 2b 04 25 28 00 	sub    %fs:0x28,%rax
    4372:	00 00 
    4374:	0f 85 b3 00 00 00    	jne    442d <logf+0x1cd>
    437a:	48 83 c4 10          	add    $0x10,%rsp
    437e:	5b                   	pop    %rbx
    437f:	41 5e                	pop    %r14
    4381:	41 5f                	pop    %r15
    4383:	c3                   	ret
    4384:	0f 1f 40 00          	nopl   0x0(%rax)
    4388:	ba 04 00 00 00       	mov    $0x4,%edx
    438d:	48 89 e6             	mov    %rsp,%rsi
    4390:	48 8d 7c 24 04       	lea    0x4(%rsp),%rdi
    4395:	f3 0f 11 0c 24       	movss  %xmm1,(%rsp)
    439a:	e8 11 0e 00 00       	call   51b0 <memmove>
    439f:	ba 04 00 00 00       	mov    $0x4,%edx
    43a4:	48 89 e6             	mov    %rsp,%rsi
    43a7:	48 8d 7c 24 04       	lea    0x4(%rsp),%rdi
    43ac:	44 8b 7c 24 04       	mov    0x4(%rsp),%r15d
    43b1:	c7 04 24 00 00 80 7f 	movl   $0x7f800000,(%rsp)
    43b8:	e8 f3 0d 00 00       	call   51b0 <memmove>
    43bd:	8b 4c 24 04          	mov    0x4(%rsp),%ecx
    43c1:	48 89 e6             	mov    %rsp,%rsi
    43c4:	48 8d 7c 24 04       	lea    0x4(%rsp),%rdi
    43c9:	44 89 fa             	mov    %r15d,%edx
    43cc:	89 c8                	mov    %ecx,%eax
    43ce:	81 e2 00 00 00 80    	and    $0x80000000,%edx
    43d4:	81 e1 ff ff 7f 00    	and    $0x7fffff,%ecx
    43da:	c1 e8 17             	shr    $0x17,%eax
    43dd:	09 ca                	or     %ecx,%edx
    43df:	83 e8 7f             	sub    $0x7f,%eax
    43e2:	0f be c0             	movsbl %al,%eax
    43e5:	83 c0 7f             	add    $0x7f,%eax
    43e8:	c1 e0 17             	shl    $0x17,%eax
    43eb:	25 00 00 80 7f       	and    $0x7f800000,%eax
    43f0:	09 d0                	or     %edx,%eax
    43f2:	ba 04 00 00 00       	mov    $0x4,%edx
    43f7:	89 04 24             	mov    %eax,(%rsp)
    43fa:	e8 b1 0d 00 00       	call   51b0 <memmove>
    43ff:	f3 0f 10 44 24 04    	movss  0x4(%rsp),%xmm0
    4405:	e9 5c ff ff ff       	jmp    4366 <logf+0x106>
    440a:	66 0f 1f 44 00 00    	nopw   0x0(%rax,%rax,1)
    4410:	f3 0f 10 05 ec 3b 00 	movss  0x3bec(%rip),%xmm0        # 8004 <_IO_stdin_used+0x4>
    4417:	00 
    4418:	e9 49 ff ff ff       	jmp    4366 <logf+0x106>
    441d:	0f 1f 00             	nopl   (%rax)
    4420:	f3 0f 10 05 00 3c 00 	movss  0x3c00(%rip),%xmm0        # 8028 <_IO_stdin_used+0x28>
    4427:	00 
    4428:	e9 39 ff ff ff       	jmp    4366 <logf+0x106>
    442d:	e8 0e cc ff ff       	call   1040 <__stack_chk_fail@plt>
    4432:	66 66 2e 0f 1f 84 00 	data16 cs nopw 0x0(%rax,%rax,1)
    4439:	00 00 00 00 
    443d:	0f 1f 00             	nopl   (%rax)

0000000000004440 <powf>:
    4440:	48 83 ec 18          	sub    $0x18,%rsp
    4444:	f3 0f 11 4c 24 0c    	movss  %xmm1,0xc(%rsp)
    444a:	e8 11 fe ff ff       	call   4260 <logf>
    444f:	f3 0f 59 44 24 0c    	mulss  0xc(%rsp),%xmm0
    4455:	48 83 c4 18          	add    $0x18,%rsp
    4459:	e9 82 f9 ff ff       	jmp    3de0 <expf>
    445e:	66 90                	xchg   %ax,%ax

0000000000004460 <logl>:
    4460:	41 57                	push   %r15
    4462:	41 56                	push   %r14
    4464:	53                   	push   %rbx
    4465:	48 83 ec 40          	sub    $0x40,%rsp
    4469:	64 48 8b 04 25 28 00 	mov    %fs:0x28,%rax
    4470:	00 00 
    4472:	48 89 44 24 38       	mov    %rax,0x38(%rsp)
    4477:	31 c0                	xor    %eax,%eax
    4479:	db 6c 24 60          	fldt   0x60(%rsp)
    447d:	d9 ee                	fldz
    447f:	db f1                	fcomi  %st(1),%st
    4481:	0f 87 84 01 00 00    	ja     460b <logl+0x1ab>
    4487:	d9 c9                	fxch   %st(1)
    4489:	db e9                	fucomi %st(1),%st
    448b:	dd d9                	fstp   %st(1)
    448d:	7a 06                	jp     4495 <logl+0x35>
    448f:	0f 84 85 01 00 00    	je     461a <logl+0x1ba>
    4495:	f2 0f 10 05 13 3e 00 	movsd  0x3e13(%rip),%xmm0        # 82b0 <_IO_stdin_used+0x2b0>
    449c:	00 
    449d:	66 0f ef c9          	pxor   %xmm1,%xmm1
    44a1:	f2 0f 5e c1          	divsd  %xmm1,%xmm0
    44a5:	f2 0f 11 44 24 08    	movsd  %xmm0,0x8(%rsp)
    44ab:	dd 44 24 08          	fldl   0x8(%rsp)
    44af:	df e9                	fucomip %st(1),%st
    44b1:	7a 06                	jp     44b9 <logl+0x59>
    44b3:	0f 84 b7 00 00 00    	je     4570 <logl+0x110>
    44b9:	66 0f 57 05 2f 3f 00 	xorpd  0x3f2f(%rip),%xmm0        # 83f0 <_IO_stdin_used+0x3f0>
    44c0:	00 
    44c1:	f2 0f 11 44 24 08    	movsd  %xmm0,0x8(%rsp)
    44c7:	dd 44 24 08          	fldl   0x8(%rsp)
    44cb:	df e9                	fucomip %st(1),%st
    44cd:	7a 06                	jp     44d5 <logl+0x75>
    44cf:	0f 84 9b 00 00 00    	je     4570 <logl+0x110>
    44d5:	c7 44 24 20 00 00 00 	movl   $0x0,0x20(%rsp)
    44dc:	00 
    44dd:	48 8d 7c 24 20       	lea    0x20(%rsp),%rdi
    44e2:	48 83 ec 10          	sub    $0x10,%rsp
    44e6:	db 3c 24             	fstpt  (%rsp)
    44e9:	e8 82 fa ff ff       	call   3f70 <frexpl>
    44ee:	8b 44 24 30          	mov    0x30(%rsp),%eax
    44f2:	d8 c0                	fadd   %st(0),%st
    44f4:	8d 50 ff             	lea    -0x1(%rax),%edx
    44f7:	58                   	pop    %rax
    44f8:	b8 1f 00 00 00       	mov    $0x1f,%eax
    44fd:	59                   	pop    %rcx
    44fe:	d9 e8                	fld1
    4500:	d9 c1                	fld    %st(1)
    4502:	d8 e1                	fsub   %st(1),%st
    4504:	d9 ca                	fxch   %st(2)
    4506:	d8 c1                	fadd   %st(1),%st
    4508:	de fa                	fdivrp %st,%st(2)
    450a:	d9 c1                	fld    %st(1)
    450c:	d8 ca                	fmul   %st(2),%st
    450e:	db 2d 2c 3f 00 00    	fldt   0x3f2c(%rip)        # 8440 <_IO_stdin_used+0x440>
    4514:	66 66 2e 0f 1f 84 00 	data16 cs nopw 0x0(%rax,%rax,1)
    451b:	00 00 00 00 
    451f:	90                   	nop
    4520:	d8 c9                	fmul   %st(1),%st
    4522:	89 44 24 08          	mov    %eax,0x8(%rsp)
    4526:	83 e8 02             	sub    $0x2,%eax
    4529:	db 44 24 08          	fildl  0x8(%rsp)
    452d:	d8 fb                	fdivr  %st(3),%st
    452f:	de c1                	faddp  %st,%st(1)
    4531:	83 f8 ff             	cmp    $0xffffffff,%eax
    4534:	75 ea                	jne    4520 <logl+0xc0>
    4536:	dd da                	fstp   %st(2)
    4538:	dd d8                	fstp   %st(0)
    453a:	d9 c9                	fxch   %st(1)
    453c:	d8 c0                	fadd   %st(0),%st
    453e:	89 54 24 08          	mov    %edx,0x8(%rsp)
    4542:	de c9                	fmulp  %st,%st(1)
    4544:	db 44 24 08          	fildl  0x8(%rsp)
    4548:	dc 0d 72 3e 00 00    	fmull  0x3e72(%rip)        # 83c0 <_IO_stdin_used+0x3c0>
    454e:	de c1                	faddp  %st,%st(1)
    4550:	48 8b 44 24 38       	mov    0x38(%rsp),%rax
    4555:	64 48 2b 04 25 28 00 	sub    %fs:0x28,%rax
    455c:	00 00 
    455e:	0f 85 c3 00 00 00    	jne    4627 <logl+0x1c7>
    4564:	48 83 c4 40          	add    $0x40,%rsp
    4568:	5b                   	pop    %rbx
    4569:	41 5e                	pop    %r14
    456b:	41 5f                	pop    %r15
    456d:	c3                   	ret
    456e:	66 90                	xchg   %ax,%ax
    4570:	db 7c 24 60          	fstpt  0x60(%rsp)
    4574:	d9 05 9e 3a 00 00    	flds   0x3a9e(%rip)        # 8018 <_IO_stdin_used+0x18>
    457a:	ba 10 00 00 00       	mov    $0x10,%edx
    457f:	48 8d 74 24 10       	lea    0x10(%rsp),%rsi
    4584:	48 8d 7c 24 20       	lea    0x20(%rsp),%rdi
    4589:	db 7c 24 10          	fstpt  0x10(%rsp)
    458d:	e8 1e 0c 00 00       	call   51b0 <memmove>
    4592:	db 6c 24 60          	fldt   0x60(%rsp)
    4596:	48 8b 4c 24 20       	mov    0x20(%rsp),%rcx
    459b:	ba 10 00 00 00       	mov    $0x10,%edx
    45a0:	48 8d 74 24 10       	lea    0x10(%rsp),%rsi
    45a5:	48 8d 7c 24 20       	lea    0x20(%rsp),%rdi
    45aa:	44 0f b7 7c 24 28    	movzwl 0x28(%rsp),%r15d
    45b0:	48 89 4c 24 08       	mov    %rcx,0x8(%rsp)
    45b5:	db 7c 24 10          	fstpt  0x10(%rsp)
    45b9:	66 41 81 e7 ff 7f    	and    $0x7fff,%r15w
    45bf:	e8 ec 0b 00 00       	call   51b0 <memmove>
    45c4:	0f b7 44 24 28       	movzwl 0x28(%rsp),%eax
    45c9:	48 8b 4c 24 08       	mov    0x8(%rsp),%rcx
    45ce:	31 f6                	xor    %esi,%esi
    45d0:	66 89 74 24 1e       	mov    %si,0x1e(%rsp)
    45d5:	ba 10 00 00 00       	mov    $0x10,%edx
    45da:	48 8d 74 24 10       	lea    0x10(%rsp),%rsi
    45df:	48 8d 7c 24 20       	lea    0x20(%rsp),%rdi
    45e4:	66 25 00 80          	and    $0x8000,%ax
    45e8:	c7 44 24 1a 00 00 00 	movl   $0x0,0x1a(%rsp)
    45ef:	00 
    45f0:	44 09 f8             	or     %r15d,%eax
    45f3:	48 89 4c 24 10       	mov    %rcx,0x10(%rsp)
    45f8:	66 89 44 24 18       	mov    %ax,0x18(%rsp)
    45fd:	e8 ae 0b 00 00       	call   51b0 <memmove>
    4602:	db 6c 24 20          	fldt   0x20(%rsp)
    4606:	e9 45 ff ff ff       	jmp    4550 <logl+0xf0>
    460b:	dd d8                	fstp   %st(0)
    460d:	dd d8                	fstp   %st(0)
    460f:	d9 05 ef 39 00 00    	flds   0x39ef(%rip)        # 8004 <_IO_stdin_used+0x4>
    4615:	e9 36 ff ff ff       	jmp    4550 <logl+0xf0>
    461a:	dd d8                	fstp   %st(0)
    461c:	d9 05 06 3a 00 00    	flds   0x3a06(%rip)        # 8028 <_IO_stdin_used+0x28>
    4622:	e9 29 ff ff ff       	jmp    4550 <logl+0xf0>
    4627:	dd d8                	fstp   %st(0)
    4629:	e8 12 ca ff ff       	call   1040 <__stack_chk_fail@plt>
    462e:	66 90                	xchg   %ax,%ax

0000000000004630 <powl>:
    4630:	48 83 ec 18          	sub    $0x18,%rsp
    4634:	ff 74 24 28          	push   0x28(%rsp)
    4638:	ff 74 24 28          	push   0x28(%rsp)
    463c:	e8 1f fe ff ff       	call   4460 <logl>
    4641:	58                   	pop    %rax
    4642:	5a                   	pop    %rdx
    4643:	db 6c 24 30          	fldt   0x30(%rsp)
    4647:	de c9                	fmulp  %st,%st(1)
    4649:	d9 05 d1 39 00 00    	flds   0x39d1(%rip)        # 8020 <_IO_stdin_used+0x20>
    464f:	df f1                	fcomip %st(1),%st
    4651:	0f 87 89 00 00 00    	ja     46e0 <powl+0xb0>
    4657:	d9 e8                	fld1
    4659:	31 d2                	xor    %edx,%edx
    465b:	d9 e0                	fchs
    465d:	db f1                	fcomi  %st(1),%st
    465f:	76 22                	jbe    4683 <powl+0x53>
    4661:	d9 05 bd 39 00 00    	flds   0x39bd(%rip)        # 8024 <_IO_stdin_used+0x24>
    4667:	eb 09                	jmp    4672 <powl+0x42>
    4669:	0f 1f 80 00 00 00 00 	nopl   0x0(%rax)
    4670:	d9 c9                	fxch   %st(1)
    4672:	dc ca                	fmul   %st,%st(2)
    4674:	d9 c9                	fxch   %st(1)
    4676:	83 c2 01             	add    $0x1,%edx
    4679:	db f2                	fcomi  %st(2),%st
    467b:	77 f3                	ja     4670 <powl+0x40>
    467d:	dd d8                	fstp   %st(0)
    467f:	dd d8                	fstp   %st(0)
    4681:	eb 0d                	jmp    4690 <powl+0x60>
    4683:	dd d8                	fstp   %st(0)
    4685:	66 66 2e 0f 1f 84 00 	data16 cs nopw 0x0(%rax,%rax,1)
    468c:	00 00 00 00 
    4690:	d9 e8                	fld1
    4692:	b8 01 00 00 00       	mov    $0x1,%eax
    4697:	d9 c0                	fld    %st(0)
    4699:	0f 1f 80 00 00 00 00 	nopl   0x0(%rax)
    46a0:	89 44 24 0c          	mov    %eax,0xc(%rsp)
    46a4:	db 44 24 0c          	fildl  0xc(%rsp)
    46a8:	83 c0 01             	add    $0x1,%eax
    46ab:	d8 fb                	fdivr  %st(3),%st
    46ad:	de c9                	fmulp  %st,%st(1)
    46af:	dc c1                	fadd   %st,%st(1)
    46b1:	83 f8 41             	cmp    $0x41,%eax
    46b4:	75 ea                	jne    46a0 <powl+0x70>
    46b6:	dd d8                	fstp   %st(0)
    46b8:	dd d9                	fstp   %st(1)
    46ba:	85 d2                	test   %edx,%edx
    46bc:	74 1d                	je     46db <powl+0xab>
    46be:	31 c0                	xor    %eax,%eax
    46c0:	f6 c2 01             	test   $0x1,%dl
    46c3:	74 0b                	je     46d0 <powl+0xa0>
    46c5:	b8 01 00 00 00       	mov    $0x1,%eax
    46ca:	d8 c8                	fmul   %st(0),%st
    46cc:	39 d0                	cmp    %edx,%eax
    46ce:	74 0b                	je     46db <powl+0xab>
    46d0:	d8 c8                	fmul   %st(0),%st
    46d2:	83 c0 02             	add    $0x2,%eax
    46d5:	d8 c8                	fmul   %st(0),%st
    46d7:	39 d0                	cmp    %edx,%eax
    46d9:	75 f5                	jne    46d0 <powl+0xa0>
    46db:	48 83 c4 18          	add    $0x18,%rsp
    46df:	c3                   	ret
    46e0:	dd d8                	fstp   %st(0)
    46e2:	d9 ee                	fldz
    46e4:	48 83 c4 18          	add    $0x18,%rsp
    46e8:	c3                   	ret
    46e9:	0f 1f 80 00 00 00 00 	nopl   0x0(%rax)

00000000000046f0 <log10>:
    46f0:	41 57                	push   %r15
    46f2:	66 0f ef db          	pxor   %xmm3,%xmm3
    46f6:	41 56                	push   %r14
    46f8:	53                   	push   %rbx
    46f9:	48 83 ec 30          	sub    $0x30,%rsp
    46fd:	64 48 8b 04 25 28 00 	mov    %fs:0x28,%rax
    4704:	00 00 
    4706:	48 89 44 24 28       	mov    %rax,0x28(%rsp)
    470b:	31 c0                	xor    %eax,%eax
    470d:	66 0f 2f d8          	comisd %xmm0,%xmm3
    4711:	0f 83 d0 00 00 00    	jae    47e7 <log10+0xf7>
    4717:	48 8d 7c 24 20       	lea    0x20(%rsp),%rdi
    471c:	c7 44 24 20 00 00 00 	movl   $0x0,0x20(%rsp)
    4723:	00 
    4724:	e8 f7 f4 ff ff       	call   3c20 <frexp>
    4729:	66 0f ef db          	pxor   %xmm3,%xmm3
    472d:	ba 02 00 00 00       	mov    $0x2,%edx
    4732:	f2 0f 10 35 76 3b 00 	movsd  0x3b76(%rip),%xmm6        # 82b0 <_IO_stdin_used+0x2b0>
    4739:	00 
    473a:	f2 0f 10 2d 1e 3c 00 	movsd  0x3c1e(%rip),%xmm5        # 8360 <_IO_stdin_used+0x360>
    4741:	00 
    4742:	f2 0f 5c c6          	subsd  %xmm6,%xmm0
    4746:	f2 0f 58 d8          	addsd  %xmm0,%xmm3
    474a:	66 0f 1f 44 00 00    	nopw   0x0(%rax,%rax,1)
    4750:	66 0f 28 d5          	movapd %xmm5,%xmm2
    4754:	f6 c2 01             	test   $0x1,%dl
    4757:	74 04                	je     475d <log10+0x6d>
    4759:	66 0f 28 d6          	movapd %xmm6,%xmm2
    475d:	66 0f 28 c8          	movapd %xmm0,%xmm1
    4761:	b8 02 00 00 00       	mov    $0x2,%eax
    4766:	f2 0f 59 c8          	mulsd  %xmm0,%xmm1
    476a:	39 d0                	cmp    %edx,%eax
    476c:	7d 21                	jge    478f <log10+0x9f>
    476e:	f6 c2 01             	test   $0x1,%dl
    4771:	74 0d                	je     4780 <log10+0x90>
    4773:	f2 0f 59 c8          	mulsd  %xmm0,%xmm1
    4777:	b8 03 00 00 00       	mov    $0x3,%eax
    477c:	39 d0                	cmp    %edx,%eax
    477e:	7d 0f                	jge    478f <log10+0x9f>
    4780:	f2 0f 59 c8          	mulsd  %xmm0,%xmm1
    4784:	83 c0 02             	add    $0x2,%eax
    4787:	f2 0f 59 c8          	mulsd  %xmm0,%xmm1
    478b:	39 d0                	cmp    %edx,%eax
    478d:	7c f1                	jl     4780 <log10+0x90>
    478f:	66 0f ef e4          	pxor   %xmm4,%xmm4
    4793:	f2 0f 2a e2          	cvtsi2sd %edx,%xmm4
    4797:	f2 0f 5e cc          	divsd  %xmm4,%xmm1
    479b:	83 c2 01             	add    $0x1,%edx
    479e:	f2 0f 59 ca          	mulsd  %xmm2,%xmm1
    47a2:	f2 0f 58 d9          	addsd  %xmm1,%xmm3
    47a6:	83 fa 11             	cmp    $0x11,%edx
    47a9:	75 a5                	jne    4750 <log10+0x60>
    47ab:	66 0f ef c0          	pxor   %xmm0,%xmm0
    47af:	f2 0f 2a 44 24 20    	cvtsi2sdl 0x20(%rsp),%xmm0
    47b5:	f2 0f 5e 1d 13 3c 00 	divsd  0x3c13(%rip),%xmm3        # 83d0 <_IO_stdin_used+0x3d0>
    47bc:	00 
    47bd:	f2 0f 59 05 03 3c 00 	mulsd  0x3c03(%rip),%xmm0        # 83c8 <_IO_stdin_used+0x3c8>
    47c4:	00 
    47c5:	f2 0f 58 c3          	addsd  %xmm3,%xmm0
    47c9:	48 8b 44 24 28       	mov    0x28(%rsp),%rax
    47ce:	64 48 2b 04 25 28 00 	sub    %fs:0x28,%rax
    47d5:	00 00 
    47d7:	0f 85 f9 00 00 00    	jne    48d6 <log10+0x1e6>
    47dd:	48 83 c4 30          	add    $0x30,%rsp
    47e1:	5b                   	pop    %rbx
    47e2:	41 5e                	pop    %r14
    47e4:	41 5f                	pop    %r15
    47e6:	c3                   	ret
    47e7:	83 0d 3a 68 00 00 01 	orl    $0x1,0x683a(%rip)        # b028 <_re_fe_curr_env>
    47ee:	f6 05 37 68 00 00 01 	testb  $0x1,0x6837(%rip)        # b02c <_re_fe_curr_env+0x4>
    47f5:	75 2e                	jne    4825 <log10+0x135>
    47f7:	f2 0f 10 0d b1 3a 00 	movsd  0x3ab1(%rip),%xmm1        # 82b0 <_IO_stdin_used+0x2b0>
    47fe:	00 
    47ff:	f2 0f 11 0c 24       	movsd  %xmm1,(%rsp)
    4804:	f2 0f 11 5c 24 08    	movsd  %xmm3,0x8(%rsp)
    480a:	f2 0f 10 0c 24       	movsd  (%rsp),%xmm1
    480f:	f2 0f 10 54 24 08    	movsd  0x8(%rsp),%xmm2
    4815:	f2 0f 5e ca          	divsd  %xmm2,%xmm1
    4819:	f2 0f 11 4c 24 10    	movsd  %xmm1,0x10(%rsp)
    481f:	f2 0f 10 4c 24 10    	movsd  0x10(%rsp),%xmm1
    4825:	ba 08 00 00 00       	mov    $0x8,%edx
    482a:	48 8d 74 24 18       	lea    0x18(%rsp),%rsi
    482f:	48 8d 7c 24 20       	lea    0x20(%rsp),%rdi
    4834:	f2 0f 11 44 24 18    	movsd  %xmm0,0x18(%rsp)
    483a:	e8 71 09 00 00       	call   51b0 <memmove>
    483f:	ba 08 00 00 00       	mov    $0x8,%edx
    4844:	48 8d 74 24 18       	lea    0x18(%rsp),%rsi
    4849:	48 8b 05 38 3b 00 00 	mov    0x3b38(%rip),%rax        # 8388 <_IO_stdin_used+0x388>
    4850:	48 8d 7c 24 20       	lea    0x20(%rsp),%rdi
    4855:	4c 8b 7c 24 20       	mov    0x20(%rsp),%r15
    485a:	48 89 44 24 18       	mov    %rax,0x18(%rsp)
    485f:	e8 4c 09 00 00       	call   51b0 <memmove>
    4864:	48 8b 4c 24 20       	mov    0x20(%rsp),%rcx
    4869:	48 8d 7c 24 20       	lea    0x20(%rsp),%rdi
    486e:	48 ba 00 00 00 00 00 	movabs $0x7ff0000000000000,%rdx
    4875:	00 f0 7f 
    4878:	48 be ff ff ff ff ff 	movabs $0xfffffffffffff,%rsi
    487f:	ff 0f 00 
    4882:	48 89 c8             	mov    %rcx,%rax
    4885:	48 21 f1             	and    %rsi,%rcx
    4888:	48 8d 74 24 18       	lea    0x18(%rsp),%rsi
    488d:	48 c1 e8 34          	shr    $0x34,%rax
    4891:	c1 e0 05             	shl    $0x5,%eax
    4894:	66 2d e0 7f          	sub    $0x7fe0,%ax
    4898:	66 c1 f8 05          	sar    $0x5,%ax
    489c:	98                   	cwtl
    489d:	05 ff 03 00 00       	add    $0x3ff,%eax
    48a2:	48 c1 e0 34          	shl    $0x34,%rax
    48a6:	48 21 d0             	and    %rdx,%rax
    48a9:	48 ba 00 00 00 00 00 	movabs $0x8000000000000000,%rdx
    48b0:	00 00 80 
    48b3:	4c 21 fa             	and    %r15,%rdx
    48b6:	48 09 ca             	or     %rcx,%rdx
    48b9:	48 09 d0             	or     %rdx,%rax
    48bc:	ba 08 00 00 00       	mov    $0x8,%edx
    48c1:	48 89 44 24 18       	mov    %rax,0x18(%rsp)
    48c6:	e8 e5 08 00 00       	call   51b0 <memmove>
    48cb:	f2 0f 10 44 24 20    	movsd  0x20(%rsp),%xmm0
    48d1:	e9 f3 fe ff ff       	jmp    47c9 <log10+0xd9>
    48d6:	e8 65 c7 ff ff       	call   1040 <__stack_chk_fail@plt>
    48db:	0f 1f 44 00 00       	nopl   0x0(%rax,%rax,1)

00000000000048e0 <log10f>:
    48e0:	48 83 ec 08          	sub    $0x8,%rsp
    48e4:	e8 77 f9 ff ff       	call   4260 <logf>
    48e9:	f3 0f 5e 05 4b 37 00 	divss  0x374b(%rip),%xmm0        # 803c <_IO_stdin_used+0x3c>
    48f0:	00 
    48f1:	48 83 c4 08          	add    $0x8,%rsp
    48f5:	c3                   	ret
    48f6:	66 2e 0f 1f 84 00 00 	cs nopw 0x0(%rax,%rax,1)
    48fd:	00 00 00 

0000000000004900 <log10l>:
    4900:	48 83 ec 08          	sub    $0x8,%rsp
    4904:	ff 74 24 18          	push   0x18(%rsp)
    4908:	ff 74 24 18          	push   0x18(%rsp)
    490c:	e8 4f fb ff ff       	call   4460 <logl>
    4911:	db 2d 39 3b 00 00    	fldt   0x3b39(%rip)        # 8450 <_IO_stdin_used+0x450>
    4917:	48 83 c4 18          	add    $0x18,%rsp
    491b:	de f9                	fdivrp %st,%st(1)
    491d:	c3                   	ret
    491e:	66 90                	xchg   %ax,%ax

0000000000004920 <log2>:
    4920:	48 83 ec 08          	sub    $0x8,%rsp
    4924:	e8 17 f7 ff ff       	call   4040 <log>
    4929:	f2 0f 5e 05 8f 3a 00 	divsd  0x3a8f(%rip),%xmm0        # 83c0 <_IO_stdin_used+0x3c0>
    4930:	00 
    4931:	48 83 c4 08          	add    $0x8,%rsp
    4935:	c3                   	ret
    4936:	66 2e 0f 1f 84 00 00 	cs nopw 0x0(%rax,%rax,1)
    493d:	00 00 00 

0000000000004940 <log2f>:
    4940:	48 83 ec 08          	sub    $0x8,%rsp
    4944:	e8 17 f9 ff ff       	call   4260 <logf>
    4949:	f3 0f 5e 05 ef 36 00 	divss  0x36ef(%rip),%xmm0        # 8040 <_IO_stdin_used+0x40>
    4950:	00 
    4951:	48 83 c4 08          	add    $0x8,%rsp
    4955:	c3                   	ret
    4956:	66 2e 0f 1f 84 00 00 	cs nopw 0x0(%rax,%rax,1)
    495d:	00 00 00 

0000000000004960 <log2l>:
    4960:	48 83 ec 08          	sub    $0x8,%rsp
    4964:	ff 74 24 18          	push   0x18(%rsp)
    4968:	ff 74 24 18          	push   0x18(%rsp)
    496c:	e8 ef fa ff ff       	call   4460 <logl>
    4971:	48 83 c4 18          	add    $0x18,%rsp
    4975:	d9 ed                	fldln2
    4977:	de f9                	fdivrp %st,%st(1)
    4979:	c3                   	ret
    497a:	66 0f 1f 44 00 00    	nopw   0x0(%rax,%rax,1)

0000000000004980 <hypotf>:
    4980:	c3                   	ret
    4981:	66 66 2e 0f 1f 84 00 	data16 cs nopw 0x0(%rax,%rax,1)
    4988:	00 00 00 00 
    498c:	0f 1f 40 00          	nopl   0x0(%rax)

0000000000004990 <hypotl>:
    4990:	d9 05 6e 36 00 00    	flds   0x366e(%rip)        # 8004 <_IO_stdin_used+0x4>
    4996:	dd d8                	fstp   %st(0)
    4998:	d9 05 66 36 00 00    	flds   0x3666(%rip)        # 8004 <_IO_stdin_used+0x4>
    499e:	c3                   	ret
    499f:	90                   	nop

00000000000049a0 <sqrt>:
    49a0:	48 83 ec 18          	sub    $0x18,%rsp
    49a4:	f2 0f 10 0d 04 39 00 	movsd  0x3904(%rip),%xmm1        # 82b0 <_IO_stdin_used+0x2b0>
    49ab:	00 
    49ac:	31 d2                	xor    %edx,%edx
    49ae:	f2 0f 10 1d 22 3a 00 	movsd  0x3a22(%rip),%xmm3        # 83d8 <_IO_stdin_used+0x3d8>
    49b5:	00 
    49b6:	66 0f 2f c1          	comisd %xmm1,%xmm0
    49ba:	76 12                	jbe    49ce <sqrt+0x2e>
    49bc:	0f 1f 40 00          	nopl   0x0(%rax)
    49c0:	f2 0f 59 c3          	mulsd  %xmm3,%xmm0
    49c4:	48 83 c2 01          	add    $0x1,%rdx
    49c8:	66 0f 2f c1          	comisd %xmm1,%xmm0
    49cc:	77 f2                	ja     49c0 <sqrt+0x20>
    49ce:	66 0f 28 c8          	movapd %xmm0,%xmm1
    49d2:	b8 10 00 00 00       	mov    $0x10,%eax
    49d7:	66 0f 1f 84 00 00 00 	nopw   0x0(%rax,%rax,1)
    49de:	00 00 
    49e0:	66 0f 28 d0          	movapd %xmm0,%xmm2
    49e4:	f2 0f 5e d1          	divsd  %xmm1,%xmm2
    49e8:	f2 0f 58 ca          	addsd  %xmm2,%xmm1
    49ec:	f2 0f 59 cb          	mulsd  %xmm3,%xmm1
    49f0:	83 e8 01             	sub    $0x1,%eax
    49f3:	75 eb                	jne    49e0 <sqrt+0x40>
    49f5:	66 0f ef c0          	pxor   %xmm0,%xmm0
    49f9:	f2 0f 11 4c 24 08    	movsd  %xmm1,0x8(%rsp)
    49ff:	f2 48 0f 2a c2       	cvtsi2sd %rdx,%xmm0
    4a04:	f2 0f 59 c3          	mulsd  %xmm3,%xmm0
    4a08:	f2 0f 11 04 24       	movsd  %xmm0,(%rsp)
    4a0d:	f2 0f 10 05 ab 38 00 	movsd  0x38ab(%rip),%xmm0        # 82c0 <_IO_stdin_used+0x2c0>
    4a14:	00 
    4a15:	e8 26 f6 ff ff       	call   4040 <log>
    4a1a:	f2 0f 59 04 24       	mulsd  (%rsp),%xmm0
    4a1f:	e8 dc f2 ff ff       	call   3d00 <exp>
    4a24:	f2 0f 59 44 24 08    	mulsd  0x8(%rsp),%xmm0
    4a2a:	48 83 c4 18          	add    $0x18,%rsp
    4a2e:	c3                   	ret
    4a2f:	90                   	nop

0000000000004a30 <hypot>:
    4a30:	48 83 ec 18          	sub    $0x18,%rsp
    4a34:	bf 01 00 00 00       	mov    $0x1,%edi
    4a39:	f2 0f 11 0c 24       	movsd  %xmm1,(%rsp)
    4a3e:	f2 0f 11 44 24 08    	movsd  %xmm0,0x8(%rsp)
    4a44:	e8 47 ea ff ff       	call   3490 <ldexp>
    4a49:	f2 0f 10 04 24       	movsd  (%rsp),%xmm0
    4a4e:	bf 01 00 00 00       	mov    $0x1,%edi
    4a53:	e8 38 ea ff ff       	call   3490 <ldexp>
    4a58:	f2 0f 10 04 24       	movsd  (%rsp),%xmm0
    4a5d:	f2 0f 58 44 24 08    	addsd  0x8(%rsp),%xmm0
    4a63:	48 83 c4 18          	add    $0x18,%rsp
    4a67:	e9 34 ff ff ff       	jmp    49a0 <sqrt>
    4a6c:	0f 1f 40 00          	nopl   0x0(%rax)

0000000000004a70 <sqrtf>:
    4a70:	f3 0f 10 1d ac 35 00 	movss  0x35ac(%rip),%xmm3        # 8024 <_IO_stdin_used+0x24>
    4a77:	00 
    4a78:	0f 28 d0             	movaps %xmm0,%xmm2
    4a7b:	b8 10 00 00 00       	mov    $0x10,%eax
    4a80:	0f 28 ca             	movaps %xmm2,%xmm1
    4a83:	f3 0f 5e c8          	divss  %xmm0,%xmm1
    4a87:	f3 0f 58 c1          	addss  %xmm1,%xmm0
    4a8b:	f3 0f 59 c3          	mulss  %xmm3,%xmm0
    4a8f:	83 e8 01             	sub    $0x1,%eax
    4a92:	75 ec                	jne    4a80 <sqrtf+0x10>
    4a94:	c3                   	ret
    4a95:	66 66 2e 0f 1f 84 00 	data16 cs nopw 0x0(%rax,%rax,1)
    4a9c:	00 00 00 00 

0000000000004aa0 <sqrtl>:
    4aa0:	db 6c 24 08          	fldt   0x8(%rsp)
    4aa4:	b8 40 00 00 00       	mov    $0x40,%eax
    4aa9:	d9 c0                	fld    %st(0)
    4aab:	d9 05 73 35 00 00    	flds   0x3573(%rip)        # 8024 <_IO_stdin_used+0x24>
    4ab1:	66 66 2e 0f 1f 84 00 	data16 cs nopw 0x0(%rax,%rax,1)
    4ab8:	00 00 00 00 
    4abc:	0f 1f 40 00          	nopl   0x0(%rax)
    4ac0:	d9 c2                	fld    %st(2)
    4ac2:	d8 f2                	fdiv   %st(2),%st
    4ac4:	de c2                	faddp  %st,%st(2)
    4ac6:	dc c9                	fmul   %st,%st(1)
    4ac8:	83 e8 01             	sub    $0x1,%eax
    4acb:	75 f3                	jne    4ac0 <sqrtl+0x20>
    4acd:	dd d8                	fstp   %st(0)
    4acf:	dd d9                	fstp   %st(1)
    4ad1:	c3                   	ret
    4ad2:	66 2e 0f 1f 84 00 00 	cs nopw 0x0(%rax,%rax,1)
    4ad9:	00 00 00 
    4adc:	66 2e 0f 1f 84 00 00 	cs nopw 0x0(%rax,%rax,1)
    4ae3:	00 00 00 
    4ae6:	66 2e 0f 1f 84 00 00 	cs nopw 0x0(%rax,%rax,1)
    4aed:	00 00 00 
    4af0:	66 2e 0f 1f 84 00 00 	cs nopw 0x0(%rax,%rax,1)
    4af7:	00 00 00 
    4afa:	66 0f 1f 44 00 00    	nopw   0x0(%rax,%rax,1)

0000000000004b00 <_re_core_log>:
    4b00:	48 83 ec 28          	sub    $0x28,%rsp
    4b04:	64 48 8b 04 25 28 00 	mov    %fs:0x28,%rax
    4b0b:	00 00 
    4b0d:	48 89 44 24 18       	mov    %rax,0x18(%rsp)
    4b12:	48 8d 44 24 30       	lea    0x30(%rsp),%rax
    4b17:	48 89 44 24 08       	mov    %rax,0x8(%rsp)
    4b1c:	48 8b 44 24 18       	mov    0x18(%rsp),%rax
    4b21:	64 48 2b 04 25 28 00 	sub    %fs:0x28,%rax
    4b28:	00 00 
    4b2a:	75 05                	jne    4b31 <_re_core_log+0x31>
    4b2c:	48 83 c4 28          	add    $0x28,%rsp
    4b30:	c3                   	ret
    4b31:	e8 0a c5 ff ff       	call   1040 <__stack_chk_fail@plt>
    4b36:	66 2e 0f 1f 84 00 00 	cs nopw 0x0(%rax,%rax,1)
    4b3d:	00 00 00 

0000000000004b40 <re_log_va>:
    4b40:	c3                   	ret
    4b41:	66 66 2e 0f 1f 84 00 	data16 cs nopw 0x0(%rax,%rax,1)
    4b48:	00 00 00 00 
    4b4c:	0f 1f 40 00          	nopl   0x0(%rax)

0000000000004b50 <itoa2>:
    4b50:	41 54                	push   %r12
    4b52:	8d 42 fe             	lea    -0x2(%rdx),%eax
    4b55:	49 89 fa             	mov    %rdi,%r10
    4b58:	41 89 d3             	mov    %edx,%r11d
    4b5b:	55                   	push   %rbp
    4b5c:	45 89 c4             	mov    %r8d,%r12d
    4b5f:	48 89 cd             	mov    %rcx,%rbp
    4b62:	53                   	push   %rbx
    4b63:	48 89 f3             	mov    %rsi,%rbx
    4b66:	48 83 ec 10          	sub    $0x10,%rsp
    4b6a:	83 f8 22             	cmp    $0x22,%eax
    4b6d:	0f 87 c5 01 00 00    	ja     4d38 <itoa2+0x1e8>
    4b73:	48 85 db             	test   %rbx,%rbx
    4b76:	0f 84 64 01 00 00    	je     4ce0 <itoa2+0x190>
    4b7c:	48 85 ed             	test   %rbp,%rbp
    4b7f:	74 32                	je     4bb3 <itoa2+0x63>
    4b81:	48 83 fd 01          	cmp    $0x1,%rbp
    4b85:	74 29                	je     4bb0 <itoa2+0x60>
    4b87:	4d 85 d2             	test   %r10,%r10
    4b8a:	74 3c                	je     4bc8 <itoa2+0x78>
    4b8c:	4c 8d 45 ff          	lea    -0x1(%rbp),%r8
    4b90:	79 56                	jns    4be8 <itoa2+0x98>
    4b92:	41 83 fb 0a          	cmp    $0xa,%r11d
    4b96:	75 50                	jne    4be8 <itoa2+0x98>
    4b98:	c6 03 2d             	movb   $0x2d,(%rbx)
    4b9b:	49 83 f8 01          	cmp    $0x1,%r8
    4b9f:	0f 85 eb 01 00 00    	jne    4d90 <itoa2+0x240>
    4ba5:	c6 43 01 00          	movb   $0x0,0x1(%rbx)
    4ba9:	eb 25                	jmp    4bd0 <itoa2+0x80>
    4bab:	0f 1f 44 00 00       	nopl   0x0(%rax,%rax,1)
    4bb0:	c6 03 00             	movb   $0x0,(%rbx)
    4bb3:	48 83 c4 10          	add    $0x10,%rsp
    4bb7:	31 ff                	xor    %edi,%edi
    4bb9:	5b                   	pop    %rbx
    4bba:	48 89 f8             	mov    %rdi,%rax
    4bbd:	5d                   	pop    %rbp
    4bbe:	41 5c                	pop    %r12
    4bc0:	c3                   	ret
    4bc1:	0f 1f 80 00 00 00 00 	nopl   0x0(%rax)
    4bc8:	b8 30 00 00 00       	mov    $0x30,%eax
    4bcd:	66 89 03             	mov    %ax,(%rbx)
    4bd0:	48 83 c4 10          	add    $0x10,%rsp
    4bd4:	bf 01 00 00 00       	mov    $0x1,%edi
    4bd9:	5b                   	pop    %rbx
    4bda:	48 89 f8             	mov    %rdi,%rax
    4bdd:	5d                   	pop    %rbp
    4bde:	41 5c                	pop    %r12
    4be0:	c3                   	ret
    4be1:	0f 1f 80 00 00 00 00 	nopl   0x0(%rax)
    4be8:	4c 89 d0             	mov    %r10,%rax
    4beb:	49 63 f3             	movslq %r11d,%rsi
    4bee:	31 ff                	xor    %edi,%edi
    4bf0:	b9 01 00 00 00       	mov    $0x1,%ecx
    4bf5:	48 99                	cqto
    4bf7:	48 f7 fe             	idiv   %rsi
    4bfa:	48 85 c0             	test   %rax,%rax
    4bfd:	7e 1a                	jle    4c19 <itoa2+0xc9>
    4bff:	b9 01 00 00 00       	mov    $0x1,%ecx
    4c04:	66 66 2e 0f 1f 84 00 	data16 cs nopw 0x0(%rax,%rax,1)
    4c0b:	00 00 00 00 
    4c0f:	90                   	nop
    4c10:	48 0f af ce          	imul   %rsi,%rcx
    4c14:	48 39 c8             	cmp    %rcx,%rax
    4c17:	7d f7                	jge    4c10 <itoa2+0xc0>
    4c19:	4d 85 d2             	test   %r10,%r10
    4c1c:	0f 8e be 01 00 00    	jle    4de0 <itoa2+0x290>
    4c22:	4c 89 d0             	mov    %r10,%rax
    4c25:	31 ed                	xor    %ebp,%ebp
    4c27:	66 0f 1f 84 00 00 00 	nopw   0x0(%rax,%rax,1)
    4c2e:	00 00 
    4c30:	48 99                	cqto
    4c32:	48 83 c5 01          	add    $0x1,%rbp
    4c36:	48 f7 fe             	idiv   %rsi
    4c39:	48 85 c0             	test   %rax,%rax
    4c3c:	7f f2                	jg     4c30 <itoa2+0xe0>
    4c3e:	48 83 fd 03          	cmp    $0x3,%rbp
    4c42:	0f 97 c0             	seta   %al
    4c45:	41 21 c4             	and    %eax,%r12d
    4c48:	45 31 db             	xor    %r11d,%r11d
    4c4b:	eb 3a                	jmp    4c87 <itoa2+0x137>
    4c4d:	0f 1f 00             	nopl   (%rax)
    4c50:	4c 89 d0             	mov    %r10,%rax
    4c53:	48 99                	cqto
    4c55:	48 f7 f9             	idiv   %rcx
    4c58:	48 83 f8 09          	cmp    $0x9,%rax
    4c5c:	44 8d 50 30          	lea    0x30(%rax),%r10d
    4c60:	44 8d 48 57          	lea    0x57(%rax),%r9d
    4c64:	48 89 c8             	mov    %rcx,%rax
    4c67:	45 0f 4e ca          	cmovle %r10d,%r9d
    4c6b:	49 89 d2             	mov    %rdx,%r10
    4c6e:	48 99                	cqto
    4c70:	49 83 c3 01          	add    $0x1,%r11
    4c74:	48 f7 fe             	idiv   %rsi
    4c77:	44 88 0c 3b          	mov    %r9b,(%rbx,%rdi,1)
    4c7b:	48 83 c7 01          	add    $0x1,%rdi
    4c7f:	48 89 c1             	mov    %rax,%rcx
    4c82:	48 85 c0             	test   %rax,%rax
    4c85:	7e 41                	jle    4cc8 <itoa2+0x178>
    4c87:	4c 39 c7             	cmp    %r8,%rdi
    4c8a:	73 3c                	jae    4cc8 <itoa2+0x178>
    4c8c:	4d 85 db             	test   %r11,%r11
    4c8f:	74 bf                	je     4c50 <itoa2+0x100>
    4c91:	45 84 e4             	test   %r12b,%r12b
    4c94:	74 ba                	je     4c50 <itoa2+0x100>
    4c96:	48 ba ab aa aa aa aa 	movabs $0xaaaaaaaaaaaaaaab,%rdx
    4c9d:	aa aa aa 
    4ca0:	48 89 e8             	mov    %rbp,%rax
    4ca3:	4c 29 d8             	sub    %r11,%rax
    4ca6:	48 0f af c2          	imul   %rdx,%rax
    4caa:	48 ba 55 55 55 55 55 	movabs $0x5555555555555555,%rdx
    4cb1:	55 55 55 
    4cb4:	48 39 c2             	cmp    %rax,%rdx
    4cb7:	72 97                	jb     4c50 <itoa2+0x100>
    4cb9:	c6 04 3b 2e          	movb   $0x2e,(%rbx,%rdi,1)
    4cbd:	48 83 c7 01          	add    $0x1,%rdi
    4cc1:	eb 8d                	jmp    4c50 <itoa2+0x100>
    4cc3:	0f 1f 44 00 00       	nopl   0x0(%rax,%rax,1)
    4cc8:	c6 04 3b 00          	movb   $0x0,(%rbx,%rdi,1)
    4ccc:	48 83 c4 10          	add    $0x10,%rsp
    4cd0:	48 89 f8             	mov    %rdi,%rax
    4cd3:	5b                   	pop    %rbx
    4cd4:	5d                   	pop    %rbp
    4cd5:	41 5c                	pop    %r12
    4cd7:	c3                   	ret
    4cd8:	0f 1f 84 00 00 00 00 	nopl   0x0(%rax,%rax,1)
    4cdf:	00 
    4ce0:	44 89 5c 24 0c       	mov    %r11d,0xc(%rsp)
    4ce5:	48 83 ec 08          	sub    $0x8,%rsp
    4ce9:	48 8d 05 0b 35 00 00 	lea    0x350b(%rip),%rax        # 81fb <_IO_stdin_used+0x1fb>
    4cf0:	48 8d 0d da 34 00 00 	lea    0x34da(%rip),%rcx        # 81d1 <_IO_stdin_used+0x1d1>
    4cf7:	4c 89 54 24 08       	mov    %r10,0x8(%rsp)
    4cfc:	48 8d 15 b2 3a 00 00 	lea    0x3ab2(%rip),%rdx        # 87b5 <__func__.17>
    4d03:	be 4e 00 00 00       	mov    $0x4e,%esi
    4d08:	4c 8d 0d aa 34 00 00 	lea    0x34aa(%rip),%r9        # 81b9 <_IO_stdin_used+0x1b9>
    4d0f:	50                   	push   %rax
    4d10:	41 b8 01 00 00 00    	mov    $0x1,%r8d
    4d16:	48 8d 3d bb 34 00 00 	lea    0x34bb(%rip),%rdi        # 81d8 <_IO_stdin_used+0x1d8>
    4d1d:	31 c0                	xor    %eax,%eax
    4d1f:	e8 dc fd ff ff       	call   4b00 <_re_core_log>
    4d24:	5a                   	pop    %rdx
    4d25:	59                   	pop    %rcx
    4d26:	44 8b 5c 24 0c       	mov    0xc(%rsp),%r11d
    4d2b:	4c 8b 14 24          	mov    (%rsp),%r10
    4d2f:	e9 48 fe ff ff       	jmp    4b7c <itoa2+0x2c>
    4d34:	0f 1f 40 00          	nopl   0x0(%rax)
    4d38:	89 54 24 0c          	mov    %edx,0xc(%rsp)
    4d3c:	48 83 ec 08          	sub    $0x8,%rsp
    4d40:	48 8d 05 9c 34 00 00 	lea    0x349c(%rip),%rax        # 81e3 <_IO_stdin_used+0x1e3>
    4d47:	be 4d 00 00 00       	mov    $0x4d,%esi
    4d4c:	48 89 7c 24 08       	mov    %rdi,0x8(%rsp)
    4d51:	4c 8d 0d 61 34 00 00 	lea    0x3461(%rip),%r9        # 81b9 <_IO_stdin_used+0x1b9>
    4d58:	48 8d 3d 79 34 00 00 	lea    0x3479(%rip),%rdi        # 81d8 <_IO_stdin_used+0x1d8>
    4d5f:	41 b8 01 00 00 00    	mov    $0x1,%r8d
    4d65:	50                   	push   %rax
    4d66:	48 8d 0d 64 34 00 00 	lea    0x3464(%rip),%rcx        # 81d1 <_IO_stdin_used+0x1d1>
    4d6d:	48 8d 15 41 3a 00 00 	lea    0x3a41(%rip),%rdx        # 87b5 <__func__.17>
    4d74:	31 c0                	xor    %eax,%eax
    4d76:	e8 85 fd ff ff       	call   4b00 <_re_core_log>
    4d7b:	5e                   	pop    %rsi
    4d7c:	5f                   	pop    %rdi
    4d7d:	44 8b 5c 24 0c       	mov    0xc(%rsp),%r11d
    4d82:	4c 8b 14 24          	mov    (%rsp),%r10
    4d86:	e9 e8 fd ff ff       	jmp    4b73 <itoa2+0x23>
    4d8b:	0f 1f 44 00 00       	nopl   0x0(%rax,%rax,1)
    4d90:	4c 89 d1             	mov    %r10,%rcx
    4d93:	48 f7 d9             	neg    %rcx
    4d96:	49 83 fa f7          	cmp    $0xfffffffffffffff7,%r10
    4d9a:	7d 26                	jge    4dc2 <itoa2+0x272>
    4d9c:	49 89 ca             	mov    %rcx,%r10
    4d9f:	be 0a 00 00 00       	mov    $0xa,%esi
    4da4:	bf 01 00 00 00       	mov    $0x1,%edi
    4da9:	48 b8 cd cc cc cc cc 	movabs $0xcccccccccccccccd,%rax
    4db0:	cc cc cc 
    4db3:	48 f7 e1             	mul    %rcx
    4db6:	48 89 d0             	mov    %rdx,%rax
    4db9:	48 c1 e8 03          	shr    $0x3,%rax
    4dbd:	e9 3d fe ff ff       	jmp    4bff <itoa2+0xaf>
    4dc2:	49 89 ca             	mov    %rcx,%r10
    4dc5:	bf 01 00 00 00       	mov    $0x1,%edi
    4dca:	b9 01 00 00 00       	mov    $0x1,%ecx
    4dcf:	be 0a 00 00 00       	mov    $0xa,%esi
    4dd4:	e9 49 fe ff ff       	jmp    4c22 <itoa2+0xd2>
    4dd9:	0f 1f 80 00 00 00 00 	nopl   0x0(%rax)
    4de0:	45 31 e4             	xor    %r12d,%r12d
    4de3:	31 ed                	xor    %ebp,%ebp
    4de5:	e9 5e fe ff ff       	jmp    4c48 <itoa2+0xf8>
    4dea:	66 0f 1f 44 00 00    	nopw   0x0(%rax,%rax,1)

0000000000004df0 <utoa2>:
    4df0:	41 54                	push   %r12
    4df2:	8d 42 fe             	lea    -0x2(%rdx),%eax
    4df5:	49 89 fa             	mov    %rdi,%r10
    4df8:	41 89 d3             	mov    %edx,%r11d
    4dfb:	55                   	push   %rbp
    4dfc:	45 89 c4             	mov    %r8d,%r12d
    4dff:	48 89 cd             	mov    %rcx,%rbp
    4e02:	53                   	push   %rbx
    4e03:	48 89 f3             	mov    %rsi,%rbx
    4e06:	48 83 ec 10          	sub    $0x10,%rsp
    4e0a:	83 f8 22             	cmp    $0x22,%eax
    4e0d:	0f 87 bd 01 00 00    	ja     4fd0 <utoa2+0x1e0>
    4e13:	48 85 db             	test   %rbx,%rbx
    4e16:	0f 84 5c 01 00 00    	je     4f78 <utoa2+0x188>
    4e1c:	48 85 ed             	test   %rbp,%rbp
    4e1f:	0f 84 1e 01 00 00    	je     4f43 <utoa2+0x153>
    4e25:	48 83 fd 01          	cmp    $0x1,%rbp
    4e29:	0f 84 11 01 00 00    	je     4f40 <utoa2+0x150>
    4e2f:	4d 85 d2             	test   %r10,%r10
    4e32:	0f 84 20 01 00 00    	je     4f58 <utoa2+0x168>
    4e38:	48 83 ed 01          	sub    $0x1,%rbp
    4e3c:	49 63 f3             	movslq %r11d,%rsi
    4e3f:	4c 89 d0             	mov    %r10,%rax
    4e42:	45 31 c0             	xor    %r8d,%r8d
    4e45:	66 66 2e 0f 1f 84 00 	data16 cs nopw 0x0(%rax,%rax,1)
    4e4c:	00 00 00 00 
    4e50:	66 66 2e 0f 1f 84 00 	data16 cs nopw 0x0(%rax,%rax,1)
    4e57:	00 00 00 00 
    4e5b:	0f 1f 44 00 00       	nopl   0x0(%rax,%rax,1)
    4e60:	48 89 c1             	mov    %rax,%rcx
    4e63:	31 d2                	xor    %edx,%edx
    4e65:	49 83 c0 01          	add    $0x1,%r8
    4e69:	48 f7 f6             	div    %rsi
    4e6c:	48 39 f1             	cmp    %rsi,%rcx
    4e6f:	73 ef                	jae    4e60 <utoa2+0x70>
    4e71:	49 39 f2             	cmp    %rsi,%r10
    4e74:	0f 82 ae 01 00 00    	jb     5028 <utoa2+0x238>
    4e7a:	4c 89 d0             	mov    %r10,%rax
    4e7d:	31 d2                	xor    %edx,%edx
    4e7f:	b9 01 00 00 00       	mov    $0x1,%ecx
    4e84:	48 f7 f6             	div    %rsi
    4e87:	66 0f 1f 84 00 00 00 	nopw   0x0(%rax,%rax,1)
    4e8e:	00 00 
    4e90:	48 0f af ce          	imul   %rsi,%rcx
    4e94:	48 39 c8             	cmp    %rcx,%rax
    4e97:	73 f7                	jae    4e90 <utoa2+0xa0>
    4e99:	49 83 f8 03          	cmp    $0x3,%r8
    4e9d:	0f 97 c0             	seta   %al
    4ea0:	45 31 db             	xor    %r11d,%r11d
    4ea3:	31 ff                	xor    %edi,%edi
    4ea5:	41 21 c4             	and    %eax,%r12d
    4ea8:	eb 42                	jmp    4eec <utoa2+0xfc>
    4eaa:	66 0f 1f 44 00 00    	nopw   0x0(%rax,%rax,1)
    4eb0:	4c 89 d0             	mov    %r10,%rax
    4eb3:	31 d2                	xor    %edx,%edx
    4eb5:	48 f7 f1             	div    %rcx
    4eb8:	48 83 f8 09          	cmp    $0x9,%rax
    4ebc:	44 8d 50 30          	lea    0x30(%rax),%r10d
    4ec0:	44 8d 48 57          	lea    0x57(%rax),%r9d
    4ec4:	45 0f 46 ca          	cmovbe %r10d,%r9d
    4ec8:	44 88 0c 3b          	mov    %r9b,(%rbx,%rdi,1)
    4ecc:	48 83 c7 01          	add    $0x1,%rdi
    4ed0:	48 39 f1             	cmp    %rsi,%rcx
    4ed3:	72 5b                	jb     4f30 <utoa2+0x140>
    4ed5:	48 89 c8             	mov    %rcx,%rax
    4ed8:	49 89 d2             	mov    %rdx,%r10
    4edb:	31 d2                	xor    %edx,%edx
    4edd:	49 83 c3 01          	add    $0x1,%r11
    4ee1:	48 f7 f6             	div    %rsi
    4ee4:	48 89 c1             	mov    %rax,%rcx
    4ee7:	48 39 ef             	cmp    %rbp,%rdi
    4eea:	73 44                	jae    4f30 <utoa2+0x140>
    4eec:	4d 85 db             	test   %r11,%r11
    4eef:	74 bf                	je     4eb0 <utoa2+0xc0>
    4ef1:	45 84 e4             	test   %r12b,%r12b
    4ef4:	74 ba                	je     4eb0 <utoa2+0xc0>
    4ef6:	48 ba ab aa aa aa aa 	movabs $0xaaaaaaaaaaaaaaab,%rdx
    4efd:	aa aa aa 
    4f00:	4c 89 c0             	mov    %r8,%rax
    4f03:	4c 29 d8             	sub    %r11,%rax
    4f06:	48 0f af c2          	imul   %rdx,%rax
    4f0a:	48 ba 55 55 55 55 55 	movabs $0x5555555555555555,%rdx
    4f11:	55 55 55 
    4f14:	48 39 c2             	cmp    %rax,%rdx
    4f17:	72 97                	jb     4eb0 <utoa2+0xc0>
    4f19:	48 8d 04 3b          	lea    (%rbx,%rdi,1),%rax
    4f1d:	48 83 c7 01          	add    $0x1,%rdi
    4f21:	c6 00 2e             	movb   $0x2e,(%rax)
    4f24:	eb 8a                	jmp    4eb0 <utoa2+0xc0>
    4f26:	66 2e 0f 1f 84 00 00 	cs nopw 0x0(%rax,%rax,1)
    4f2d:	00 00 00 
    4f30:	c6 04 3b 00          	movb   $0x0,(%rbx,%rdi,1)
    4f34:	48 83 c4 10          	add    $0x10,%rsp
    4f38:	48 89 f8             	mov    %rdi,%rax
    4f3b:	5b                   	pop    %rbx
    4f3c:	5d                   	pop    %rbp
    4f3d:	41 5c                	pop    %r12
    4f3f:	c3                   	ret
    4f40:	c6 03 00             	movb   $0x0,(%rbx)
    4f43:	48 83 c4 10          	add    $0x10,%rsp
    4f47:	31 ff                	xor    %edi,%edi
    4f49:	5b                   	pop    %rbx
    4f4a:	48 89 f8             	mov    %rdi,%rax
    4f4d:	5d                   	pop    %rbp
    4f4e:	41 5c                	pop    %r12
    4f50:	c3                   	ret
    4f51:	0f 1f 80 00 00 00 00 	nopl   0x0(%rax)
    4f58:	b8 30 00 00 00       	mov    $0x30,%eax
    4f5d:	bf 01 00 00 00       	mov    $0x1,%edi
    4f62:	66 89 03             	mov    %ax,(%rbx)
    4f65:	48 83 c4 10          	add    $0x10,%rsp
    4f69:	48 89 f8             	mov    %rdi,%rax
    4f6c:	5b                   	pop    %rbx
    4f6d:	5d                   	pop    %rbp
    4f6e:	41 5c                	pop    %r12
    4f70:	c3                   	ret
    4f71:	0f 1f 80 00 00 00 00 	nopl   0x0(%rax)
    4f78:	44 89 5c 24 0c       	mov    %r11d,0xc(%rsp)
    4f7d:	48 83 ec 08          	sub    $0x8,%rsp
    4f81:	48 8d 05 73 32 00 00 	lea    0x3273(%rip),%rax        # 81fb <_IO_stdin_used+0x1fb>
    4f88:	48 8d 0d 42 32 00 00 	lea    0x3242(%rip),%rcx        # 81d1 <_IO_stdin_used+0x1d1>
    4f8f:	4c 89 54 24 08       	mov    %r10,0x8(%rsp)
    4f94:	48 8d 15 14 38 00 00 	lea    0x3814(%rip),%rdx        # 87af <__func__.16>
    4f9b:	be ac 00 00 00       	mov    $0xac,%esi
    4fa0:	4c 8d 0d 12 32 00 00 	lea    0x3212(%rip),%r9        # 81b9 <_IO_stdin_used+0x1b9>
    4fa7:	50                   	push   %rax
    4fa8:	41 b8 01 00 00 00    	mov    $0x1,%r8d
    4fae:	48 8d 3d 23 32 00 00 	lea    0x3223(%rip),%rdi        # 81d8 <_IO_stdin_used+0x1d8>
    4fb5:	31 c0                	xor    %eax,%eax
    4fb7:	e8 44 fb ff ff       	call   4b00 <_re_core_log>
    4fbc:	5a                   	pop    %rdx
    4fbd:	59                   	pop    %rcx
    4fbe:	44 8b 5c 24 0c       	mov    0xc(%rsp),%r11d
    4fc3:	4c 8b 14 24          	mov    (%rsp),%r10
    4fc7:	e9 50 fe ff ff       	jmp    4e1c <utoa2+0x2c>
    4fcc:	0f 1f 40 00          	nopl   0x0(%rax)
    4fd0:	89 54 24 0c          	mov    %edx,0xc(%rsp)
    4fd4:	48 83 ec 08          	sub    $0x8,%rsp
    4fd8:	48 8d 05 04 32 00 00 	lea    0x3204(%rip),%rax        # 81e3 <_IO_stdin_used+0x1e3>
    4fdf:	be ab 00 00 00       	mov    $0xab,%esi
    4fe4:	48 89 7c 24 08       	mov    %rdi,0x8(%rsp)
    4fe9:	4c 8d 0d c9 31 00 00 	lea    0x31c9(%rip),%r9        # 81b9 <_IO_stdin_used+0x1b9>
    4ff0:	48 8d 3d e1 31 00 00 	lea    0x31e1(%rip),%rdi        # 81d8 <_IO_stdin_used+0x1d8>
    4ff7:	41 b8 01 00 00 00    	mov    $0x1,%r8d
    4ffd:	50                   	push   %rax
    4ffe:	48 8d 0d cc 31 00 00 	lea    0x31cc(%rip),%rcx        # 81d1 <_IO_stdin_used+0x1d1>
    5005:	48 8d 15 a3 37 00 00 	lea    0x37a3(%rip),%rdx        # 87af <__func__.16>
    500c:	31 c0                	xor    %eax,%eax
    500e:	e8 ed fa ff ff       	call   4b00 <_re_core_log>
    5013:	5e                   	pop    %rsi
    5014:	5f                   	pop    %rdi
    5015:	44 8b 5c 24 0c       	mov    0xc(%rsp),%r11d
    501a:	4c 8b 14 24          	mov    (%rsp),%r10
    501e:	e9 f0 fd ff ff       	jmp    4e13 <utoa2+0x23>
    5023:	0f 1f 44 00 00       	nopl   0x0(%rax,%rax,1)
    5028:	b9 01 00 00 00       	mov    $0x1,%ecx
    502d:	e9 67 fe ff ff       	jmp    4e99 <utoa2+0xa9>
    5032:	66 66 2e 0f 1f 84 00 	data16 cs nopw 0x0(%rax,%rax,1)
    5039:	00 00 00 00 
    503d:	0f 1f 00             	nopl   (%rax)

0000000000005040 <memset>:
    5040:	53                   	push   %rbx
    5041:	49 89 fb             	mov    %rdi,%r11
    5044:	41 89 f2             	mov    %esi,%r10d
    5047:	48 89 d3             	mov    %rdx,%rbx
    504a:	48 83 ec 10          	sub    $0x10,%rsp
    504e:	48 85 ff             	test   %rdi,%rdi
    5051:	0f 84 f9 00 00 00    	je     5150 <memset+0x110>
    5057:	48 85 db             	test   %rbx,%rbx
    505a:	0f 84 a0 00 00 00    	je     5100 <memset+0xc0>
    5060:	48 8d 4b ff          	lea    -0x1(%rbx),%rcx
    5064:	48 83 f9 0e          	cmp    $0xe,%rcx
    5068:	0f 86 35 01 00 00    	jbe    51a3 <memset+0x163>
    506e:	66 41 0f 6e c2       	movd   %r10d,%xmm0
    5073:	48 89 de             	mov    %rbx,%rsi
    5076:	4c 89 da             	mov    %r11,%rdx
    5079:	66 0f 60 c0          	punpcklbw %xmm0,%xmm0
    507d:	48 83 e6 f0          	and    $0xfffffffffffffff0,%rsi
    5081:	66 0f 61 c0          	punpcklwd %xmm0,%xmm0
    5085:	49 8d 04 33          	lea    (%r11,%rsi,1),%rax
    5089:	66 0f 70 c0 00       	pshufd $0x0,%xmm0,%xmm0
    508e:	40 f6 c6 10          	test   $0x10,%sil
    5092:	74 1c                	je     50b0 <memset+0x70>
    5094:	49 8d 53 10          	lea    0x10(%r11),%rdx
    5098:	41 0f 11 03          	movups %xmm0,(%r11)
    509c:	48 39 c2             	cmp    %rax,%rdx
    509f:	74 1f                	je     50c0 <memset+0x80>
    50a1:	66 66 2e 0f 1f 84 00 	data16 cs nopw 0x0(%rax,%rax,1)
    50a8:	00 00 00 00 
    50ac:	0f 1f 40 00          	nopl   0x0(%rax)
    50b0:	0f 11 02             	movups %xmm0,(%rdx)
    50b3:	48 83 c2 20          	add    $0x20,%rdx
    50b7:	0f 11 42 f0          	movups %xmm0,-0x10(%rdx)
    50bb:	48 39 c2             	cmp    %rax,%rdx
    50be:	75 f0                	jne    50b0 <memset+0x70>
    50c0:	48 39 f3             	cmp    %rsi,%rbx
    50c3:	74 2b                	je     50f0 <memset+0xb0>
    50c5:	48 29 f1             	sub    %rsi,%rcx
    50c8:	48 8d 54 08 01       	lea    0x1(%rax,%rcx,1),%rdx
    50cd:	83 e1 01             	and    $0x1,%ecx
    50d0:	75 0e                	jne    50e0 <memset+0xa0>
    50d2:	44 88 10             	mov    %r10b,(%rax)
    50d5:	48 83 c0 01          	add    $0x1,%rax
    50d9:	48 39 d0             	cmp    %rdx,%rax
    50dc:	74 12                	je     50f0 <memset+0xb0>
    50de:	66 90                	xchg   %ax,%ax
    50e0:	44 88 10             	mov    %r10b,(%rax)
    50e3:	48 83 c0 02          	add    $0x2,%rax
    50e7:	44 88 50 ff          	mov    %r10b,-0x1(%rax)
    50eb:	48 39 d0             	cmp    %rdx,%rax
    50ee:	75 f0                	jne    50e0 <memset+0xa0>
    50f0:	48 83 c4 10          	add    $0x10,%rsp
    50f4:	4c 89 d8             	mov    %r11,%rax
    50f7:	5b                   	pop    %rbx
    50f8:	c3                   	ret
    50f9:	0f 1f 80 00 00 00 00 	nopl   0x0(%rax)
    5100:	4c 89 1c 24          	mov    %r11,(%rsp)
    5104:	48 83 ec 08          	sub    $0x8,%rsp
    5108:	48 8d 05 04 31 00 00 	lea    0x3104(%rip),%rax        # 8213 <_IO_stdin_used+0x213>
    510f:	48 8d 15 92 36 00 00 	lea    0x3692(%rip),%rdx        # 87a8 <__func__.15>
    5116:	50                   	push   %rax
    5117:	4c 8d 0d 9b 30 00 00 	lea    0x309b(%rip),%r9        # 81b9 <_IO_stdin_used+0x1b9>
    511e:	31 c0                	xor    %eax,%eax
    5120:	41 b8 01 00 00 00    	mov    $0x1,%r8d
    5126:	48 8d 0d a4 30 00 00 	lea    0x30a4(%rip),%rcx        # 81d1 <_IO_stdin_used+0x1d1>
    512d:	be 16 02 00 00       	mov    $0x216,%esi
    5132:	48 8d 3d 9f 30 00 00 	lea    0x309f(%rip),%rdi        # 81d8 <_IO_stdin_used+0x1d8>
    5139:	e8 c2 f9 ff ff       	call   4b00 <_re_core_log>
    513e:	58                   	pop    %rax
    513f:	5a                   	pop    %rdx
    5140:	4c 8b 1c 24          	mov    (%rsp),%r11
    5144:	48 83 c4 10          	add    $0x10,%rsp
    5148:	5b                   	pop    %rbx
    5149:	4c 89 d8             	mov    %r11,%rax
    514c:	c3                   	ret
    514d:	0f 1f 00             	nopl   (%rax)
    5150:	89 74 24 0c          	mov    %esi,0xc(%rsp)
    5154:	48 83 ec 08          	sub    $0x8,%rsp
    5158:	48 8d 05 a8 30 00 00 	lea    0x30a8(%rip),%rax        # 8207 <_IO_stdin_used+0x207>
    515f:	48 8d 0d 6b 30 00 00 	lea    0x306b(%rip),%rcx        # 81d1 <_IO_stdin_used+0x1d1>
    5166:	48 89 7c 24 08       	mov    %rdi,0x8(%rsp)
    516b:	be 15 02 00 00       	mov    $0x215,%esi
    5170:	4c 8d 0d 42 30 00 00 	lea    0x3042(%rip),%r9        # 81b9 <_IO_stdin_used+0x1b9>
    5177:	41 b8 01 00 00 00    	mov    $0x1,%r8d
    517d:	50                   	push   %rax
    517e:	48 8d 15 23 36 00 00 	lea    0x3623(%rip),%rdx        # 87a8 <__func__.15>
    5185:	48 8d 3d 4c 30 00 00 	lea    0x304c(%rip),%rdi        # 81d8 <_IO_stdin_used+0x1d8>
    518c:	31 c0                	xor    %eax,%eax
    518e:	e8 6d f9 ff ff       	call   4b00 <_re_core_log>
    5193:	59                   	pop    %rcx
    5194:	5e                   	pop    %rsi
    5195:	44 8b 54 24 0c       	mov    0xc(%rsp),%r10d
    519a:	4c 8b 1c 24          	mov    (%rsp),%r11
    519e:	e9 b4 fe ff ff       	jmp    5057 <memset+0x17>
    51a3:	4c 89 d8             	mov    %r11,%rax
    51a6:	e9 1d ff ff ff       	jmp    50c8 <memset+0x88>
    51ab:	0f 1f 44 00 00       	nopl   0x0(%rax,%rax,1)

00000000000051b0 <memmove>:
    51b0:	48 85 d2             	test   %rdx,%rdx
    51b3:	74 53                	je     5208 <memmove+0x58>
    51b5:	48 89 d1             	mov    %rdx,%rcx
    51b8:	48 39 fe             	cmp    %rdi,%rsi
    51bb:	73 2b                	jae    51e8 <memmove+0x38>
    51bd:	48 8d 04 16          	lea    (%rsi,%rdx,1),%rax
    51c1:	48 39 c7             	cmp    %rax,%rdi
    51c4:	73 22                	jae    51e8 <memmove+0x38>
    51c6:	48 8d 52 ff          	lea    -0x1(%rdx),%rdx
    51ca:	66 0f 1f 44 00 00    	nopw   0x0(%rax,%rax,1)
    51d0:	0f b6 04 16          	movzbl (%rsi,%rdx,1),%eax
    51d4:	88 04 17             	mov    %al,(%rdi,%rdx,1)
    51d7:	48 83 ea 01          	sub    $0x1,%rdx
    51db:	73 f3                	jae    51d0 <memmove+0x20>
    51dd:	48 89 f8             	mov    %rdi,%rax
    51e0:	c3                   	ret
    51e1:	0f 1f 80 00 00 00 00 	nopl   0x0(%rax)
    51e8:	31 d2                	xor    %edx,%edx
    51ea:	66 0f 1f 44 00 00    	nopw   0x0(%rax,%rax,1)
    51f0:	0f b6 04 16          	movzbl (%rsi,%rdx,1),%eax
    51f4:	88 04 17             	mov    %al,(%rdi,%rdx,1)
    51f7:	48 83 c2 01          	add    $0x1,%rdx
    51fb:	48 39 ca             	cmp    %rcx,%rdx
    51fe:	75 f0                	jne    51f0 <memmove+0x40>
    5200:	48 89 f8             	mov    %rdi,%rax
    5203:	c3                   	ret
    5204:	0f 1f 40 00          	nopl   0x0(%rax)
    5208:	48 83 ec 10          	sub    $0x10,%rsp
    520c:	48 8d 05 2b 30 00 00 	lea    0x302b(%rip),%rax        # 823e <_IO_stdin_used+0x23e>
    5213:	4c 8d 0d 9f 2f 00 00 	lea    0x2f9f(%rip),%r9        # 81b9 <_IO_stdin_used+0x1b9>
    521a:	41 b8 01 00 00 00    	mov    $0x1,%r8d
    5220:	50                   	push   %rax
    5221:	48 8d 0d a9 2f 00 00 	lea    0x2fa9(%rip),%rcx        # 81d1 <_IO_stdin_used+0x1d1>
    5228:	31 c0                	xor    %eax,%eax
    522a:	48 8d 15 6f 35 00 00 	lea    0x356f(%rip),%rdx        # 87a0 <__func__.14>
    5231:	be 27 02 00 00       	mov    $0x227,%esi
    5236:	48 8d 3d 9b 2f 00 00 	lea    0x2f9b(%rip),%rdi        # 81d8 <_IO_stdin_used+0x1d8>
    523d:	e8 be f8 ff ff       	call   4b00 <_re_core_log>
    5242:	31 c0                	xor    %eax,%eax
    5244:	48 83 c4 18          	add    $0x18,%rsp
    5248:	c3                   	ret
    5249:	0f 1f 80 00 00 00 00 	nopl   0x0(%rax)

0000000000005250 <aligned_alloc>:
    5250:	48 8d 46 ff          	lea    -0x1(%rsi),%rax
    5254:	41 54                	push   %r12
    5256:	55                   	push   %rbp
    5257:	53                   	push   %rbx
    5258:	48 85 f0             	test   %rsi,%rax
    525b:	75 53                	jne    52b0 <aligned_alloc+0x60>
    525d:	48 89 fd             	mov    %rdi,%rbp
    5260:	48 85 ff             	test   %rdi,%rdi
    5263:	0f 84 97 00 00 00    	je     5300 <aligned_alloc+0xb0>
    5269:	49 89 f4             	mov    %rsi,%r12
    526c:	48 8d 7c 3e 0f       	lea    0xf(%rsi,%rdi,1),%rdi
    5271:	48 89 f3             	mov    %rsi,%rbx
    5274:	49 f7 dc             	neg    %r12
    5277:	4c 21 e7             	and    %r12,%rdi
    527a:	e8 f1 24 00 00       	call   7770 <malloc>
    527f:	48 85 c0             	test   %rax,%rax
    5282:	74 69                	je     52ed <aligned_alloc+0x9d>
    5284:	48 8d 4c 18 0f       	lea    0xf(%rax,%rbx,1),%rcx
    5289:	31 d2                	xor    %edx,%edx
    528b:	4c 21 e1             	and    %r12,%rcx
    528e:	48 89 41 f8          	mov    %rax,-0x8(%rcx)
    5292:	48 89 c8             	mov    %rcx,%rax
    5295:	48 f7 f3             	div    %rbx
    5298:	48 89 69 f0          	mov    %rbp,-0x10(%rcx)
    529c:	48 85 d2             	test   %rdx,%rdx
    529f:	0f 85 9b 00 00 00    	jne    5340 <aligned_alloc+0xf0>
    52a5:	5b                   	pop    %rbx
    52a6:	48 89 c8             	mov    %rcx,%rax
    52a9:	5d                   	pop    %rbp
    52aa:	41 5c                	pop    %r12
    52ac:	c3                   	ret
    52ad:	0f 1f 00             	nopl   (%rax)
    52b0:	48 83 ec 08          	sub    $0x8,%rsp
    52b4:	48 8d 05 c5 33 00 00 	lea    0x33c5(%rip),%rax        # 8680 <_cordic_atan_table+0x200>
    52bb:	41 b8 01 00 00 00    	mov    $0x1,%r8d
    52c1:	be 4f 02 00 00       	mov    $0x24f,%esi
    52c6:	50                   	push   %rax
    52c7:	48 8d 3d 0a 2f 00 00 	lea    0x2f0a(%rip),%rdi        # 81d8 <_IO_stdin_used+0x1d8>
    52ce:	31 c0                	xor    %eax,%eax
    52d0:	4c 8d 0d e2 2e 00 00 	lea    0x2ee2(%rip),%r9        # 81b9 <_IO_stdin_used+0x1b9>
    52d7:	48 8d 0d f3 2e 00 00 	lea    0x2ef3(%rip),%rcx        # 81d1 <_IO_stdin_used+0x1d1>
    52de:	48 8d 15 ab 34 00 00 	lea    0x34ab(%rip),%rdx        # 8790 <__func__.13>
    52e5:	e8 16 f8 ff ff       	call   4b00 <_re_core_log>
    52ea:	5f                   	pop    %rdi
    52eb:	41 58                	pop    %r8
    52ed:	31 c9                	xor    %ecx,%ecx
    52ef:	5b                   	pop    %rbx
    52f0:	48 89 c8             	mov    %rcx,%rax
    52f3:	5d                   	pop    %rbp
    52f4:	41 5c                	pop    %r12
    52f6:	c3                   	ret
    52f7:	66 0f 1f 84 00 00 00 	nopw   0x0(%rax,%rax,1)
    52fe:	00 00 
    5300:	48 83 ec 08          	sub    $0x8,%rsp
    5304:	be 50 02 00 00       	mov    $0x250,%esi
    5309:	48 8d 05 36 2f 00 00 	lea    0x2f36(%rip),%rax        # 8246 <_IO_stdin_used+0x246>
    5310:	41 b8 01 00 00 00    	mov    $0x1,%r8d
    5316:	50                   	push   %rax
    5317:	48 8d 0d b3 2e 00 00 	lea    0x2eb3(%rip),%rcx        # 81d1 <_IO_stdin_used+0x1d1>
    531e:	31 c0                	xor    %eax,%eax
    5320:	4c 8d 0d 92 2e 00 00 	lea    0x2e92(%rip),%r9        # 81b9 <_IO_stdin_used+0x1b9>
    5327:	48 8d 15 62 34 00 00 	lea    0x3462(%rip),%rdx        # 8790 <__func__.13>
    532e:	48 8d 3d a3 2e 00 00 	lea    0x2ea3(%rip),%rdi        # 81d8 <_IO_stdin_used+0x1d8>
    5335:	e8 c6 f7 ff ff       	call   4b00 <_re_core_log>
    533a:	59                   	pop    %rcx
    533b:	31 c9                	xor    %ecx,%ecx
    533d:	5e                   	pop    %rsi
    533e:	eb af                	jmp    52ef <aligned_alloc+0x9f>
    5340:	48 83 ec 08          	sub    $0x8,%rsp
    5344:	48 8d 05 5d 33 00 00 	lea    0x335d(%rip),%rax        # 86a8 <_cordic_atan_table+0x228>
    534b:	48 8d 0d 7f 2e 00 00 	lea    0x2e7f(%rip),%rcx        # 81d1 <_IO_stdin_used+0x1d1>
    5352:	41 b8 01 00 00 00    	mov    $0x1,%r8d
    5358:	50                   	push   %rax
    5359:	48 8d 15 30 34 00 00 	lea    0x3430(%rip),%rdx        # 8790 <__func__.13>
    5360:	31 c0                	xor    %eax,%eax
    5362:	4c 8d 0d 50 2e 00 00 	lea    0x2e50(%rip),%r9        # 81b9 <_IO_stdin_used+0x1b9>
    5369:	be 64 02 00 00       	mov    $0x264,%esi
    536e:	48 8d 3d 63 2e 00 00 	lea    0x2e63(%rip),%rdi        # 81d8 <_IO_stdin_used+0x1d8>
    5375:	e8 86 f7 ff ff       	call   4b00 <_re_core_log>
    537a:	58                   	pop    %rax
    537b:	31 c9                	xor    %ecx,%ecx
    537d:	5a                   	pop    %rdx
    537e:	e9 6c ff ff ff       	jmp    52ef <aligned_alloc+0x9f>
    5383:	66 66 2e 0f 1f 84 00 	data16 cs nopw 0x0(%rax,%rax,1)
    538a:	00 00 00 00 
    538e:	66 90                	xchg   %ax,%ax

0000000000005390 <aligned_realloc>:
    5390:	48 83 ec 28          	sub    $0x28,%rsp
    5394:	48 85 f6             	test   %rsi,%rsi
    5397:	0f 84 b3 00 00 00    	je     5450 <aligned_realloc+0xc0>
    539d:	48 85 d2             	test   %rdx,%rdx
    53a0:	0f 84 fa 00 00 00    	je     54a0 <aligned_realloc+0x110>
    53a6:	48 8d 42 ff          	lea    -0x1(%rdx),%rax
    53aa:	48 85 d0             	test   %rdx,%rax
    53ad:	0f 85 2d 01 00 00    	jne    54e0 <aligned_realloc+0x150>
    53b3:	48 89 f9             	mov    %rdi,%rcx
    53b6:	48 89 f7             	mov    %rsi,%rdi
    53b9:	48 85 c9             	test   %rcx,%rcx
    53bc:	0f 84 66 01 00 00    	je     5528 <aligned_realloc+0x198>
    53c2:	48 83 79 f8 00       	cmpq   $0x0,-0x8(%rcx)
    53c7:	0f 84 6b 01 00 00    	je     5538 <aligned_realloc+0x1a8>
    53cd:	4c 8b 49 f0          	mov    -0x10(%rcx),%r9
    53d1:	49 89 c8             	mov    %rcx,%r8
    53d4:	4c 39 ce             	cmp    %r9,%rsi
    53d7:	75 0f                	jne    53e8 <aligned_realloc+0x58>
    53d9:	4c 89 c0             	mov    %r8,%rax
    53dc:	48 83 c4 28          	add    $0x28,%rsp
    53e0:	c3                   	ret
    53e1:	0f 1f 80 00 00 00 00 	nopl   0x0(%rax)
    53e8:	48 89 d6             	mov    %rdx,%rsi
    53eb:	48 89 7c 24 08       	mov    %rdi,0x8(%rsp)
    53f0:	4c 89 4c 24 10       	mov    %r9,0x10(%rsp)
    53f5:	48 89 4c 24 18       	mov    %rcx,0x18(%rsp)
    53fa:	e8 51 fe ff ff       	call   5250 <aligned_alloc>
    53ff:	48 8b 7c 24 08       	mov    0x8(%rsp),%rdi
    5404:	4c 8b 4c 24 10       	mov    0x10(%rsp),%r9
    5409:	48 8b 4c 24 18       	mov    0x18(%rsp),%rcx
    540e:	48 89 44 24 08       	mov    %rax,0x8(%rsp)
    5413:	4c 39 cf             	cmp    %r9,%rdi
    5416:	4c 89 ca             	mov    %r9,%rdx
    5419:	48 0f 46 d7          	cmovbe %rdi,%rdx
    541d:	48 89 ce             	mov    %rcx,%rsi
    5420:	48 89 c7             	mov    %rax,%rdi
    5423:	48 89 4c 24 10       	mov    %rcx,0x10(%rsp)
    5428:	e8 83 fd ff ff       	call   51b0 <memmove>
    542d:	48 8b 4c 24 10       	mov    0x10(%rsp),%rcx
    5432:	48 8b 79 f8          	mov    -0x8(%rcx),%rdi
    5436:	e8 15 24 00 00       	call   7850 <free>
    543b:	4c 8b 44 24 08       	mov    0x8(%rsp),%r8
    5440:	48 83 c4 28          	add    $0x28,%rsp
    5444:	4c 89 c0             	mov    %r8,%rax
    5447:	c3                   	ret
    5448:	0f 1f 84 00 00 00 00 	nopl   0x0(%rax,%rax,1)
    544f:	00 
    5450:	48 83 ec 08          	sub    $0x8,%rsp
    5454:	48 8d 05 43 2e 00 00 	lea    0x2e43(%rip),%rax        # 829e <_IO_stdin_used+0x29e>
    545b:	4c 8d 0d 57 2d 00 00 	lea    0x2d57(%rip),%r9        # 81b9 <_IO_stdin_used+0x1b9>
    5462:	41 b8 01 00 00 00    	mov    $0x1,%r8d
    5468:	50                   	push   %rax
    5469:	48 8d 0d 61 2d 00 00 	lea    0x2d61(%rip),%rcx        # 81d1 <_IO_stdin_used+0x1d1>
    5470:	31 c0                	xor    %eax,%eax
    5472:	48 8d 15 07 33 00 00 	lea    0x3307(%rip),%rdx        # 8780 <__func__.12>
    5479:	be 6c 02 00 00       	mov    $0x26c,%esi
    547e:	48 8d 3d 53 2d 00 00 	lea    0x2d53(%rip),%rdi        # 81d8 <_IO_stdin_used+0x1d8>
    5485:	e8 76 f6 ff ff       	call   4b00 <_re_core_log>
    548a:	41 59                	pop    %r9
    548c:	41 5a                	pop    %r10
    548e:	45 31 c0             	xor    %r8d,%r8d
    5491:	48 83 c4 28          	add    $0x28,%rsp
    5495:	4c 89 c0             	mov    %r8,%rax
    5498:	c3                   	ret
    5499:	0f 1f 80 00 00 00 00 	nopl   0x0(%rax)
    54a0:	48 83 ec 08          	sub    $0x8,%rsp
    54a4:	48 8d 05 70 2d 00 00 	lea    0x2d70(%rip),%rax        # 821b <_IO_stdin_used+0x21b>
    54ab:	41 b8 01 00 00 00    	mov    $0x1,%r8d
    54b1:	be 6d 02 00 00       	mov    $0x26d,%esi
    54b6:	50                   	push   %rax
    54b7:	48 8d 3d 1a 2d 00 00 	lea    0x2d1a(%rip),%rdi        # 81d8 <_IO_stdin_used+0x1d8>
    54be:	31 c0                	xor    %eax,%eax
    54c0:	4c 8d 0d f2 2c 00 00 	lea    0x2cf2(%rip),%r9        # 81b9 <_IO_stdin_used+0x1b9>
    54c7:	48 8d 0d 03 2d 00 00 	lea    0x2d03(%rip),%rcx        # 81d1 <_IO_stdin_used+0x1d1>
    54ce:	48 8d 15 ab 32 00 00 	lea    0x32ab(%rip),%rdx        # 8780 <__func__.12>
    54d5:	e8 26 f6 ff ff       	call   4b00 <_re_core_log>
    54da:	5f                   	pop    %rdi
    54db:	41 58                	pop    %r8
    54dd:	eb af                	jmp    548e <aligned_realloc+0xfe>
    54df:	90                   	nop
    54e0:	48 83 ec 08          	sub    $0x8,%rsp
    54e4:	be 6e 02 00 00       	mov    $0x26e,%esi
    54e9:	48 8d 05 90 31 00 00 	lea    0x3190(%rip),%rax        # 8680 <_cordic_atan_table+0x200>
    54f0:	41 b8 01 00 00 00    	mov    $0x1,%r8d
    54f6:	50                   	push   %rax
    54f7:	48 8d 0d d3 2c 00 00 	lea    0x2cd3(%rip),%rcx        # 81d1 <_IO_stdin_used+0x1d1>
    54fe:	31 c0                	xor    %eax,%eax
    5500:	4c 8d 0d b2 2c 00 00 	lea    0x2cb2(%rip),%r9        # 81b9 <_IO_stdin_used+0x1b9>
    5507:	48 8d 15 72 32 00 00 	lea    0x3272(%rip),%rdx        # 8780 <__func__.12>
    550e:	48 8d 3d c3 2c 00 00 	lea    0x2cc3(%rip),%rdi        # 81d8 <_IO_stdin_used+0x1d8>
    5515:	e8 e6 f5 ff ff       	call   4b00 <_re_core_log>
    551a:	59                   	pop    %rcx
    551b:	5e                   	pop    %rsi
    551c:	e9 6d ff ff ff       	jmp    548e <aligned_realloc+0xfe>
    5521:	0f 1f 80 00 00 00 00 	nopl   0x0(%rax)
    5528:	48 89 d6             	mov    %rdx,%rsi
    552b:	48 83 c4 28          	add    $0x28,%rsp
    552f:	e9 1c fd ff ff       	jmp    5250 <aligned_alloc>
    5534:	0f 1f 40 00          	nopl   0x0(%rax)
    5538:	48 83 ec 08          	sub    $0x8,%rsp
    553c:	48 8d 15 3d 32 00 00 	lea    0x323d(%rip),%rdx        # 8780 <__func__.12>
    5543:	31 c0                	xor    %eax,%eax
    5545:	41 b8 01 00 00 00    	mov    $0x1,%r8d
    554b:	51                   	push   %rcx
    554c:	4c 8d 0d d7 2c 00 00 	lea    0x2cd7(%rip),%r9        # 822a <_IO_stdin_used+0x22a>
    5553:	48 8d 0d 77 2c 00 00 	lea    0x2c77(%rip),%rcx        # 81d1 <_IO_stdin_used+0x1d1>
    555a:	be 7f 02 00 00       	mov    $0x27f,%esi
    555f:	48 8d 3d 72 2c 00 00 	lea    0x2c72(%rip),%rdi        # 81d8 <_IO_stdin_used+0x1d8>
    5566:	e8 95 f5 ff ff       	call   4b00 <_re_core_log>
    556b:	58                   	pop    %rax
    556c:	5a                   	pop    %rdx
    556d:	e9 1c ff ff ff       	jmp    548e <aligned_realloc+0xfe>
    5572:	66 66 2e 0f 1f 84 00 	data16 cs nopw 0x0(%rax,%rax,1)
    5579:	00 00 00 00 
    557d:	0f 1f 00             	nopl   (%rax)

0000000000005580 <aligned_get_absolute_ptr>:
    5580:	48 8b 47 f8          	mov    -0x8(%rdi),%rax
    5584:	c3                   	ret
    5585:	66 66 2e 0f 1f 84 00 	data16 cs nopw 0x0(%rax,%rax,1)
    558c:	00 00 00 00 

0000000000005590 <aligned_ptr_get_size>:
    5590:	48 8b 47 f0          	mov    -0x10(%rdi),%rax
    5594:	c3                   	ret
    5595:	66 66 2e 0f 1f 84 00 	data16 cs nopw 0x0(%rax,%rax,1)
    559c:	00 00 00 00 

00000000000055a0 <re_realloc>:
    55a0:	48 85 f6             	test   %rsi,%rsi
    55a3:	74 0b                	je     55b0 <re_realloc+0x10>
    55a5:	e9 96 22 00 00       	jmp    7840 <realloc>
    55aa:	66 0f 1f 44 00 00    	nopw   0x0(%rax,%rax,1)
    55b0:	48 83 ec 10          	sub    $0x10,%rsp
    55b4:	48 8d 05 7f 2c 00 00 	lea    0x2c7f(%rip),%rax        # 823a <_IO_stdin_used+0x23a>
    55bb:	4c 8d 0d f7 2b 00 00 	lea    0x2bf7(%rip),%r9        # 81b9 <_IO_stdin_used+0x1b9>
    55c2:	41 b8 01 00 00 00    	mov    $0x1,%r8d
    55c8:	50                   	push   %rax
    55c9:	48 8d 0d 01 2c 00 00 	lea    0x2c01(%rip),%rcx        # 81d1 <_IO_stdin_used+0x1d1>
    55d0:	31 c0                	xor    %eax,%eax
    55d2:	48 8d 15 97 31 00 00 	lea    0x3197(%rip),%rdx        # 8770 <__func__.11>
    55d9:	be 95 02 00 00       	mov    $0x295,%esi
    55de:	48 8d 3d f3 2b 00 00 	lea    0x2bf3(%rip),%rdi        # 81d8 <_IO_stdin_used+0x1d8>
    55e5:	e8 16 f5 ff ff       	call   4b00 <_re_core_log>
    55ea:	31 c0                	xor    %eax,%eax
    55ec:	48 83 c4 18          	add    $0x18,%rsp
    55f0:	c3                   	ret
    55f1:	66 66 2e 0f 1f 84 00 	data16 cs nopw 0x0(%rax,%rax,1)
    55f8:	00 00 00 00 
    55fc:	0f 1f 40 00          	nopl   0x0(%rax)

0000000000005600 <aligned_free>:
    5600:	48 8b 7f f8          	mov    -0x8(%rdi),%rdi
    5604:	e9 47 22 00 00       	jmp    7850 <free>
    5609:	0f 1f 80 00 00 00 00 	nopl   0x0(%rax)

0000000000005610 <memchr>:
    5610:	48 89 f8             	mov    %rdi,%rax
    5613:	48 01 d7             	add    %rdx,%rdi
    5616:	48 85 d2             	test   %rdx,%rdx
    5619:	74 25                	je     5640 <memchr+0x30>
    561b:	0f 1f 44 00 00       	nopl   0x0(%rax,%rax,1)
    5620:	48 89 c2             	mov    %rax,%rdx
    5623:	40 38 30             	cmp    %sil,(%rax)
    5626:	74 0b                	je     5633 <memchr+0x23>
    5628:	48 83 c0 01          	add    $0x1,%rax
    562c:	48 39 f8             	cmp    %rdi,%rax
    562f:	75 ef                	jne    5620 <memchr+0x10>
    5631:	31 d2                	xor    %edx,%edx
    5633:	48 89 d0             	mov    %rdx,%rax
    5636:	c3                   	ret
    5637:	66 0f 1f 84 00 00 00 	nopw   0x0(%rax,%rax,1)
    563e:	00 00 
    5640:	48 83 ec 10          	sub    $0x10,%rsp
    5644:	48 8d 05 fa 2b 00 00 	lea    0x2bfa(%rip),%rax        # 8245 <_IO_stdin_used+0x245>
    564b:	4c 8d 0d 67 2b 00 00 	lea    0x2b67(%rip),%r9        # 81b9 <_IO_stdin_used+0x1b9>
    5652:	41 b8 01 00 00 00    	mov    $0x1,%r8d
    5658:	50                   	push   %rax
    5659:	48 8d 0d 71 2b 00 00 	lea    0x2b71(%rip),%rcx        # 81d1 <_IO_stdin_used+0x1d1>
    5660:	31 c0                	xor    %eax,%eax
    5662:	48 8d 15 ff 30 00 00 	lea    0x30ff(%rip),%rdx        # 8768 <__func__.10>
    5669:	be b5 02 00 00       	mov    $0x2b5,%esi
    566e:	48 8d 3d 63 2b 00 00 	lea    0x2b63(%rip),%rdi        # 81d8 <_IO_stdin_used+0x1d8>
    5675:	e8 86 f4 ff ff       	call   4b00 <_re_core_log>
    567a:	31 c0                	xor    %eax,%eax
    567c:	48 83 c4 18          	add    $0x18,%rsp
    5680:	c3                   	ret
    5681:	66 66 2e 0f 1f 84 00 	data16 cs nopw 0x0(%rax,%rax,1)
    5688:	00 00 00 00 
    568c:	0f 1f 40 00          	nopl   0x0(%rax)

0000000000005690 <memcmp>:
    5690:	48 85 d2             	test   %rdx,%rdx
    5693:	74 3b                	je     56d0 <memcmp+0x40>
    5695:	49 89 f8             	mov    %rdi,%r8
    5698:	31 c0                	xor    %eax,%eax
    569a:	48 89 f7             	mov    %rsi,%rdi
    569d:	48 89 d6             	mov    %rdx,%rsi
    56a0:	41 0f b6 14 00       	movzbl (%r8,%rax,1),%edx
    56a5:	0f b6 0c 07          	movzbl (%rdi,%rax,1),%ecx
    56a9:	38 ca                	cmp    %cl,%dl
    56ab:	75 13                	jne    56c0 <memcmp+0x30>
    56ad:	48 83 c0 01          	add    $0x1,%rax
    56b1:	48 39 f0             	cmp    %rsi,%rax
    56b4:	75 ea                	jne    56a0 <memcmp+0x10>
    56b6:	31 c0                	xor    %eax,%eax
    56b8:	c3                   	ret
    56b9:	0f 1f 80 00 00 00 00 	nopl   0x0(%rax)
    56c0:	0f b6 c2             	movzbl %dl,%eax
    56c3:	29 c8                	sub    %ecx,%eax
    56c5:	c3                   	ret
    56c6:	66 2e 0f 1f 84 00 00 	cs nopw 0x0(%rax,%rax,1)
    56cd:	00 00 00 
    56d0:	48 83 ec 10          	sub    $0x10,%rsp
    56d4:	48 8d 05 74 2b 00 00 	lea    0x2b74(%rip),%rax        # 824f <_IO_stdin_used+0x24f>
    56db:	4c 8d 0d d7 2a 00 00 	lea    0x2ad7(%rip),%r9        # 81b9 <_IO_stdin_used+0x1b9>
    56e2:	41 b8 01 00 00 00    	mov    $0x1,%r8d
    56e8:	50                   	push   %rax
    56e9:	48 8d 0d e1 2a 00 00 	lea    0x2ae1(%rip),%rcx        # 81d1 <_IO_stdin_used+0x1d1>
    56f0:	31 c0                	xor    %eax,%eax
    56f2:	48 8d 15 68 30 00 00 	lea    0x3068(%rip),%rdx        # 8761 <__func__.9>
    56f9:	be c5 02 00 00       	mov    $0x2c5,%esi
    56fe:	48 8d 3d d3 2a 00 00 	lea    0x2ad3(%rip),%rdi        # 81d8 <_IO_stdin_used+0x1d8>
    5705:	e8 f6 f3 ff ff       	call   4b00 <_re_core_log>
    570a:	b8 ff ff ff ff       	mov    $0xffffffff,%eax
    570f:	48 83 c4 18          	add    $0x18,%rsp
    5713:	c3                   	ret
    5714:	66 66 2e 0f 1f 84 00 	data16 cs nopw 0x0(%rax,%rax,1)
    571b:	00 00 00 00 
    571f:	90                   	nop

0000000000005720 <strncpy2>:
    5720:	48 85 d2             	test   %rdx,%rdx
    5723:	74 5b                	je     5780 <strncpy2+0x60>
    5725:	48 89 d1             	mov    %rdx,%rcx
    5728:	0f b6 16             	movzbl (%rsi),%edx
    572b:	48 89 f0             	mov    %rsi,%rax
    572e:	84 d2                	test   %dl,%dl
    5730:	0f 84 92 00 00 00    	je     57c8 <strncpy2+0xa8>
    5736:	66 2e 0f 1f 84 00 00 	cs nopw 0x0(%rax,%rax,1)
    573d:	00 00 00 
    5740:	48 83 c0 01          	add    $0x1,%rax
    5744:	80 38 00             	cmpb   $0x0,(%rax)
    5747:	75 f7                	jne    5740 <strncpy2+0x20>
    5749:	48 29 f0             	sub    %rsi,%rax
    574c:	48 39 c8             	cmp    %rcx,%rax
    574f:	48 0f 47 c1          	cmova  %rcx,%rax
    5753:	48 01 f9             	add    %rdi,%rcx
    5756:	48 85 ff             	test   %rdi,%rdi
    5759:	75 09                	jne    5764 <strncpy2+0x44>
    575b:	c3                   	ret
    575c:	0f 1f 40 00          	nopl   0x0(%rax)
    5760:	84 d2                	test   %dl,%dl
    5762:	74 12                	je     5776 <strncpy2+0x56>
    5764:	88 17                	mov    %dl,(%rdi)
    5766:	48 83 c7 01          	add    $0x1,%rdi
    576a:	48 83 c6 01          	add    $0x1,%rsi
    576e:	0f b6 16             	movzbl (%rsi),%edx
    5771:	48 39 cf             	cmp    %rcx,%rdi
    5774:	75 ea                	jne    5760 <strncpy2+0x40>
    5776:	c6 07 00             	movb   $0x0,(%rdi)
    5779:	c3                   	ret
    577a:	66 0f 1f 44 00 00    	nopw   0x0(%rax,%rax,1)
    5780:	48 83 ec 10          	sub    $0x10,%rsp
    5784:	48 8d 05 c4 2a 00 00 	lea    0x2ac4(%rip),%rax        # 824f <_IO_stdin_used+0x24f>
    578b:	4c 8d 0d 27 2a 00 00 	lea    0x2a27(%rip),%r9        # 81b9 <_IO_stdin_used+0x1b9>
    5792:	41 b8 01 00 00 00    	mov    $0x1,%r8d
    5798:	50                   	push   %rax
    5799:	48 8d 0d 31 2a 00 00 	lea    0x2a31(%rip),%rcx        # 81d1 <_IO_stdin_used+0x1d1>
    57a0:	31 c0                	xor    %eax,%eax
    57a2:	48 8d 15 af 2f 00 00 	lea    0x2faf(%rip),%rdx        # 8758 <__func__.8>
    57a9:	be d9 02 00 00       	mov    $0x2d9,%esi
    57ae:	48 8d 3d 23 2a 00 00 	lea    0x2a23(%rip),%rdi        # 81d8 <_IO_stdin_used+0x1d8>
    57b5:	e8 46 f3 ff ff       	call   4b00 <_re_core_log>
    57ba:	31 c0                	xor    %eax,%eax
    57bc:	48 83 c4 18          	add    $0x18,%rsp
    57c0:	c3                   	ret
    57c1:	0f 1f 80 00 00 00 00 	nopl   0x0(%rax)
    57c8:	31 c0                	xor    %eax,%eax
    57ca:	48 85 ff             	test   %rdi,%rdi
    57cd:	75 a7                	jne    5776 <strncpy2+0x56>
    57cf:	c3                   	ret

00000000000057d0 <ftoa2.part.0>:
    57d0:	41 57                	push   %r15
    57d2:	66 0f 28 c8          	movapd %xmm0,%xmm1
    57d6:	49 89 f9             	mov    %rdi,%r9
    57d9:	41 56                	push   %r14
    57db:	41 54                	push   %r12
    57dd:	55                   	push   %rbp
    57de:	53                   	push   %rbx
    57df:	48 83 ec 60          	sub    $0x60,%rsp
    57e3:	66 0f 2e c0          	ucomisd %xmm0,%xmm0
    57e7:	64 4c 8b 14 25 28 00 	mov    %fs:0x28,%r10
    57ee:	00 00 
    57f0:	4c 89 54 24 58       	mov    %r10,0x58(%rsp)
    57f5:	49 89 d2             	mov    %rdx,%r10
    57f8:	7b 6e                	jnp    5868 <ftoa2.part.0+0x98>
    57fa:	48 8d 4c 24 50       	lea    0x50(%rsp),%rcx
    57ff:	48 8d 44 24 40       	lea    0x40(%rsp),%rax
    5804:	f2 0f 11 44 24 40    	movsd  %xmm0,0x40(%rsp)
    580a:	48 39 c8             	cmp    %rcx,%rax
    580d:	73 0e                	jae    581d <ftoa2.part.0+0x4d>
    580f:	48 8d 44 24 48       	lea    0x48(%rsp),%rax
    5814:	48 39 c1             	cmp    %rax,%rcx
    5817:	0f 82 2b 01 00 00    	jb     5948 <ftoa2.part.0+0x178>
    581d:	f2 0f 11 4c 24 50    	movsd  %xmm1,0x50(%rsp)
    5823:	48 83 7c 24 50 00    	cmpq   $0x0,0x50(%rsp)
    5829:	0f 88 c9 00 00 00    	js     58f8 <ftoa2.part.0+0x128>
    582f:	48 8b 44 24 58       	mov    0x58(%rsp),%rax
    5834:	64 48 2b 04 25 28 00 	sub    %fs:0x28,%rax
    583b:	00 00 
    583d:	0f 85 c8 05 00 00    	jne    5e0b <ftoa2.part.0+0x63b>
    5843:	4c 89 d2             	mov    %r10,%rdx
    5846:	48 8d 35 0b 2a 00 00 	lea    0x2a0b(%rip),%rsi        # 8258 <_IO_stdin_used+0x258>
    584d:	48 83 c4 60          	add    $0x60,%rsp
    5851:	4c 89 cf             	mov    %r9,%rdi
    5854:	5b                   	pop    %rbx
    5855:	5d                   	pop    %rbp
    5856:	41 5c                	pop    %r12
    5858:	41 5e                	pop    %r14
    585a:	41 5f                	pop    %r15
    585c:	e9 bf fe ff ff       	jmp    5720 <strncpy2>
    5861:	0f 1f 80 00 00 00 00 	nopl   0x0(%rax)
    5868:	f2 0f 10 05 40 2a 00 	movsd  0x2a40(%rip),%xmm0        # 82b0 <_IO_stdin_used+0x2b0>
    586f:	00 
    5870:	66 0f ef d2          	pxor   %xmm2,%xmm2
    5874:	41 89 f3             	mov    %esi,%r11d
    5877:	41 89 ce             	mov    %ecx,%r14d
    587a:	f2 0f 5e c2          	divsd  %xmm2,%xmm0
    587e:	66 0f 2e c8          	ucomisd %xmm0,%xmm1
    5882:	7a 02                	jp     5886 <ftoa2.part.0+0xb6>
    5884:	74 18                	je     589e <ftoa2.part.0+0xce>
    5886:	66 0f 57 05 62 2b 00 	xorpd  0x2b62(%rip),%xmm0        # 83f0 <_IO_stdin_used+0x3f0>
    588d:	00 
    588e:	66 0f 2e c8          	ucomisd %xmm0,%xmm1
    5892:	0f 8a e8 00 00 00    	jp     5980 <ftoa2.part.0+0x1b0>
    5898:	0f 85 e2 00 00 00    	jne    5980 <ftoa2.part.0+0x1b0>
    589e:	48 8d 4c 24 50       	lea    0x50(%rsp),%rcx
    58a3:	48 8d 44 24 40       	lea    0x40(%rsp),%rax
    58a8:	f2 0f 11 4c 24 40    	movsd  %xmm1,0x40(%rsp)
    58ae:	48 39 c8             	cmp    %rcx,%rax
    58b1:	73 0e                	jae    58c1 <ftoa2.part.0+0xf1>
    58b3:	48 8d 44 24 48       	lea    0x48(%rsp),%rax
    58b8:	48 39 c1             	cmp    %rax,%rcx
    58bb:	0f 82 ef 03 00 00    	jb     5cb0 <ftoa2.part.0+0x4e0>
    58c1:	f2 0f 11 4c 24 50    	movsd  %xmm1,0x50(%rsp)
    58c7:	48 83 7c 24 50 00    	cmpq   $0x0,0x50(%rsp)
    58cd:	78 51                	js     5920 <ftoa2.part.0+0x150>
    58cf:	48 8b 44 24 58       	mov    0x58(%rsp),%rax
    58d4:	64 48 2b 04 25 28 00 	sub    %fs:0x28,%rax
    58db:	00 00 
    58dd:	0f 85 28 05 00 00    	jne    5e0b <ftoa2.part.0+0x63b>
    58e3:	4c 89 d2             	mov    %r10,%rdx
    58e6:	48 8d 35 70 29 00 00 	lea    0x2970(%rip),%rsi        # 825d <_IO_stdin_used+0x25d>
    58ed:	e9 5b ff ff ff       	jmp    584d <ftoa2.part.0+0x7d>
    58f2:	66 0f 1f 44 00 00    	nopw   0x0(%rax,%rax,1)
    58f8:	48 8b 44 24 58       	mov    0x58(%rsp),%rax
    58fd:	64 48 2b 04 25 28 00 	sub    %fs:0x28,%rax
    5904:	00 00 
    5906:	0f 85 ff 04 00 00    	jne    5e0b <ftoa2.part.0+0x63b>
    590c:	4c 89 d2             	mov    %r10,%rdx
    590f:	48 8d 35 41 29 00 00 	lea    0x2941(%rip),%rsi        # 8257 <_IO_stdin_used+0x257>
    5916:	e9 32 ff ff ff       	jmp    584d <ftoa2.part.0+0x7d>
    591b:	0f 1f 44 00 00       	nopl   0x0(%rax,%rax,1)
    5920:	48 8b 44 24 58       	mov    0x58(%rsp),%rax
    5925:	64 48 2b 04 25 28 00 	sub    %fs:0x28,%rax
    592c:	00 00 
    592e:	0f 85 d7 04 00 00    	jne    5e0b <ftoa2.part.0+0x63b>
    5934:	4c 89 d2             	mov    %r10,%rdx
    5937:	48 8d 35 1e 29 00 00 	lea    0x291e(%rip),%rsi        # 825c <_IO_stdin_used+0x25c>
    593e:	e9 0a ff ff ff       	jmp    584d <ftoa2.part.0+0x7d>
    5943:	0f 1f 44 00 00       	nopl   0x0(%rax,%rax,1)
    5948:	48 8d 54 24 58       	lea    0x58(%rsp),%rdx
    594d:	66 66 2e 0f 1f 84 00 	data16 cs nopw 0x0(%rax,%rax,1)
    5954:	00 00 00 00 
    5958:	0f 1f 84 00 00 00 00 	nopl   0x0(%rax,%rax,1)
    595f:	00 
    5960:	0f b6 70 ff          	movzbl -0x1(%rax),%esi
    5964:	48 83 ea 01          	sub    $0x1,%rdx
    5968:	48 83 e8 01          	sub    $0x1,%rax
    596c:	40 88 32             	mov    %sil,(%rdx)
    596f:	48 39 ca             	cmp    %rcx,%rdx
    5972:	75 ec                	jne    5960 <ftoa2.part.0+0x190>
    5974:	e9 aa fe ff ff       	jmp    5823 <ftoa2.part.0+0x53>
    5979:	0f 1f 80 00 00 00 00 	nopl   0x0(%rax)
    5980:	66 0f ef c0          	pxor   %xmm0,%xmm0
    5984:	66 0f 2f c8          	comisd %xmm0,%xmm1
    5988:	0f 8a 52 03 00 00    	jp     5ce0 <ftoa2.part.0+0x510>
    598e:	0f 84 7c 03 00 00    	je     5d10 <ftoa2.part.0+0x540>
    5994:	0f 87 46 03 00 00    	ja     5ce0 <ftoa2.part.0+0x510>
    599a:	66 0f 28 e1          	movapd %xmm1,%xmm4
    599e:	41 c6 01 2d          	movb   $0x2d,(%r9)
    59a2:	66 0f 57 25 46 2a 00 	xorpd  0x2a46(%rip),%xmm4        # 83f0 <_IO_stdin_used+0x3f0>
    59a9:	00 
    59aa:	4d 8d 79 01          	lea    0x1(%r9),%r15
    59ae:	f2 0f 11 64 24 08    	movsd  %xmm4,0x8(%rsp)
    59b4:	f2 0f 10 44 24 08    	movsd  0x8(%rsp),%xmm0
    59ba:	4c 89 54 24 20       	mov    %r10,0x20(%rsp)
    59bf:	44 89 5c 24 18       	mov    %r11d,0x18(%rsp)
    59c4:	4c 89 4c 24 10       	mov    %r9,0x10(%rsp)
    59c9:	f2 0f 11 4c 24 28    	movsd  %xmm1,0x28(%rsp)
    59cf:	e8 1c ed ff ff       	call   46f0 <log10>
    59d4:	4c 8b 4c 24 10       	mov    0x10(%rsp),%r9
    59d9:	44 8b 5c 24 18       	mov    0x18(%rsp),%r11d
    59de:	f2 0f 2c c0          	cvttsd2si %xmm0,%eax
    59e2:	4c 8b 54 24 20       	mov    0x20(%rsp),%r10
    59e7:	83 f8 0d             	cmp    $0xd,%eax
    59ea:	41 89 c4             	mov    %eax,%r12d
    59ed:	7f 21                	jg     5a10 <ftoa2.part.0+0x240>
    59ef:	66 0f ef c0          	pxor   %xmm0,%xmm0
    59f3:	66 0f 2f 44 24 28    	comisd 0x28(%rsp),%xmm0
    59f9:	0f 97 c2             	seta   %dl
    59fc:	83 f8 08             	cmp    $0x8,%eax
    59ff:	0f 9f c0             	setg   %al
    5a02:	84 c2                	test   %al,%dl
    5a04:	75 0a                	jne    5a10 <ftoa2.part.0+0x240>
    5a06:	41 83 fc f8          	cmp    $0xfffffff8,%r12d
